Archive member included to satisfy reference by file (symbol)

c:/program files (x86)/gnu tools arm embedded/5.4 2016q3/bin/../lib/gcc/arm-none-eabi/5.4.1/armv7e-m\libgcc.a(_arm_addsubdf3.o)
                              ..\obj\tm_stm32f4_fatfs.o (__aeabi_ui2d)
c:/program files (x86)/gnu tools arm embedded/5.4 2016q3/bin/../lib/gcc/arm-none-eabi/5.4.1/armv7e-m\libgcc.a(_arm_muldivdf3.o)
                              ..\obj\tm_stm32f4_fatfs.o (__aeabi_dmul)
c:/program files (x86)/gnu tools arm embedded/5.4 2016q3/bin/../lib/gcc/arm-none-eabi/5.4.1/armv7e-m\libgcc.a(_arm_cmpdf2.o)
                              ..\obj\tm_stm32f4_timer_properties.o (__aeabi_dcmpeq)
c:/program files (x86)/gnu tools arm embedded/5.4 2016q3/bin/../lib/gcc/arm-none-eabi/5.4.1/armv7e-m\libgcc.a(_arm_fixunsdfsi.o)
                              ..\obj\tm_stm32f4_fatfs.o (__aeabi_d2uiz)
c:/program files (x86)/gnu tools arm embedded/5.4 2016q3/bin/../lib/gcc/arm-none-eabi/5.4.1/../../../../arm-none-eabi/lib/armv7e-m\libg.a(lib_a-malloc.o)
                              ..\obj\tm_stm32f4_fatfs.o (malloc)
c:/program files (x86)/gnu tools arm embedded/5.4 2016q3/bin/../lib/gcc/arm-none-eabi/5.4.1/../../../../arm-none-eabi/lib/armv7e-m\libg.a(lib_a-mallocr.o)
                              c:/program files (x86)/gnu tools arm embedded/5.4 2016q3/bin/../lib/gcc/arm-none-eabi/5.4.1/../../../../arm-none-eabi/lib/armv7e-m\libg.a(lib_a-malloc.o) (_malloc_r)
c:/program files (x86)/gnu tools arm embedded/5.4 2016q3/bin/../lib/gcc/arm-none-eabi/5.4.1/../../../../arm-none-eabi/lib/armv7e-m\libg.a(lib_a-memcpy.o)
                              ..\obj\mp3dec.o (memcpy)
c:/program files (x86)/gnu tools arm embedded/5.4 2016q3/bin/../lib/gcc/arm-none-eabi/5.4.1/../../../../arm-none-eabi/lib/armv7e-m\libg.a(lib_a-memmove.o)
                              ..\obj\mp3dec.o (memmove)
c:/program files (x86)/gnu tools arm embedded/5.4 2016q3/bin/../lib/gcc/arm-none-eabi/5.4.1/../../../../arm-none-eabi/lib/armv7e-m\libg.a(lib_a-mlock.o)
                              c:/program files (x86)/gnu tools arm embedded/5.4 2016q3/bin/../lib/gcc/arm-none-eabi/5.4.1/../../../../arm-none-eabi/lib/armv7e-m\libg.a(lib_a-mallocr.o) (__malloc_lock)
c:/program files (x86)/gnu tools arm embedded/5.4 2016q3/bin/../lib/gcc/arm-none-eabi/5.4.1/../../../../arm-none-eabi/lib/armv7e-m\libg.a(lib_a-realloc.o)
                              ..\obj\file.o (realloc)
c:/program files (x86)/gnu tools arm embedded/5.4 2016q3/bin/../lib/gcc/arm-none-eabi/5.4.1/../../../../arm-none-eabi/lib/armv7e-m\libg.a(lib_a-reallocr.o)
                              c:/program files (x86)/gnu tools arm embedded/5.4 2016q3/bin/../lib/gcc/arm-none-eabi/5.4.1/../../../../arm-none-eabi/lib/armv7e-m\libg.a(lib_a-realloc.o) (_realloc_r)
c:/program files (x86)/gnu tools arm embedded/5.4 2016q3/bin/../lib/gcc/arm-none-eabi/5.4.1/../../../../arm-none-eabi/lib/armv7e-m\libg.a(lib_a-sbrkr.o)
                              c:/program files (x86)/gnu tools arm embedded/5.4 2016q3/bin/../lib/gcc/arm-none-eabi/5.4.1/../../../../arm-none-eabi/lib/armv7e-m\libg.a(lib_a-mallocr.o) (_sbrk_r)
c:/program files (x86)/gnu tools arm embedded/5.4 2016q3/bin/../lib/gcc/arm-none-eabi/5.4.1/../../../../arm-none-eabi/lib/armv7e-m\libg.a(lib_a-sprintf.o)
                              ..\obj\tm_stm32f4_fatfs.o (sprintf)
c:/program files (x86)/gnu tools arm embedded/5.4 2016q3/bin/../lib/gcc/arm-none-eabi/5.4.1/../../../../arm-none-eabi/lib/armv7e-m\libg.a(lib_a-strcpy.o)
                              ..\obj\tm_stm32f4_fatfs.o (strcpy)
c:/program files (x86)/gnu tools arm embedded/5.4 2016q3/bin/../lib/gcc/arm-none-eabi/5.4.1/../../../../arm-none-eabi/lib/armv7e-m\libg.a(lib_a-strlen.o)
                              ..\obj\tm_stm32f4_fatfs.o (strlen)
c:/program files (x86)/gnu tools arm embedded/5.4 2016q3/bin/../lib/gcc/arm-none-eabi/5.4.1/../../../../arm-none-eabi/lib/armv7e-m\libg.a(lib_a-svfprintf.o)
                              c:/program files (x86)/gnu tools arm embedded/5.4 2016q3/bin/../lib/gcc/arm-none-eabi/5.4.1/../../../../arm-none-eabi/lib/armv7e-m\libg.a(lib_a-sprintf.o) (_svfprintf_r)
c:/program files (x86)/gnu tools arm embedded/5.4 2016q3/bin/../lib/gcc/arm-none-eabi/5.4.1/../../../../arm-none-eabi/lib/armv7e-m\libg.a(lib_a-dtoa.o)
                              c:/program files (x86)/gnu tools arm embedded/5.4 2016q3/bin/../lib/gcc/arm-none-eabi/5.4.1/../../../../arm-none-eabi/lib/armv7e-m\libg.a(lib_a-svfprintf.o) (_dtoa_r)
c:/program files (x86)/gnu tools arm embedded/5.4 2016q3/bin/../lib/gcc/arm-none-eabi/5.4.1/../../../../arm-none-eabi/lib/armv7e-m\libg.a(lib_a-freer.o)
                              c:/program files (x86)/gnu tools arm embedded/5.4 2016q3/bin/../lib/gcc/arm-none-eabi/5.4.1/../../../../arm-none-eabi/lib/armv7e-m\libg.a(lib_a-malloc.o) (_free_r)
c:/program files (x86)/gnu tools arm embedded/5.4 2016q3/bin/../lib/gcc/arm-none-eabi/5.4.1/../../../../arm-none-eabi/lib/armv7e-m\libg.a(lib_a-impure.o)
                              c:/program files (x86)/gnu tools arm embedded/5.4 2016q3/bin/../lib/gcc/arm-none-eabi/5.4.1/../../../../arm-none-eabi/lib/armv7e-m\libg.a(lib_a-malloc.o) (_impure_ptr)
c:/program files (x86)/gnu tools arm embedded/5.4 2016q3/bin/../lib/gcc/arm-none-eabi/5.4.1/../../../../arm-none-eabi/lib/armv7e-m\libg.a(lib_a-localeconv.o)
                              c:/program files (x86)/gnu tools arm embedded/5.4 2016q3/bin/../lib/gcc/arm-none-eabi/5.4.1/../../../../arm-none-eabi/lib/armv7e-m\libg.a(lib_a-svfprintf.o) (_localeconv_r)
c:/program files (x86)/gnu tools arm embedded/5.4 2016q3/bin/../lib/gcc/arm-none-eabi/5.4.1/../../../../arm-none-eabi/lib/armv7e-m\libg.a(lib_a-memchr.o)
                              c:/program files (x86)/gnu tools arm embedded/5.4 2016q3/bin/../lib/gcc/arm-none-eabi/5.4.1/../../../../arm-none-eabi/lib/armv7e-m\libg.a(lib_a-svfprintf.o) (memchr)
c:/program files (x86)/gnu tools arm embedded/5.4 2016q3/bin/../lib/gcc/arm-none-eabi/5.4.1/../../../../arm-none-eabi/lib/armv7e-m\libg.a(lib_a-mprec.o)
                              c:/program files (x86)/gnu tools arm embedded/5.4 2016q3/bin/../lib/gcc/arm-none-eabi/5.4.1/../../../../arm-none-eabi/lib/armv7e-m\libg.a(lib_a-dtoa.o) (_Balloc)
c:/program files (x86)/gnu tools arm embedded/5.4 2016q3/bin/../lib/gcc/arm-none-eabi/5.4.1/../../../../arm-none-eabi/lib/armv7e-m\libg.a(lib_a-reent.o)
                              c:/program files (x86)/gnu tools arm embedded/5.4 2016q3/bin/../lib/gcc/arm-none-eabi/5.4.1/../../../../arm-none-eabi/lib/armv7e-m\libg.a(lib_a-sbrkr.o) (errno)
c:/program files (x86)/gnu tools arm embedded/5.4 2016q3/bin/../lib/gcc/arm-none-eabi/5.4.1/../../../../arm-none-eabi/lib/armv7e-m\libg.a(lib_a-svfiprintf.o)
                              c:/program files (x86)/gnu tools arm embedded/5.4 2016q3/bin/../lib/gcc/arm-none-eabi/5.4.1/../../../../arm-none-eabi/lib/armv7e-m\libg.a(lib_a-svfprintf.o) (__ssprint_r)
c:/program files (x86)/gnu tools arm embedded/5.4 2016q3/bin/../lib/gcc/arm-none-eabi/5.4.1/../../../../arm-none-eabi/lib/armv7e-m\libg.a(lib_a-callocr.o)
                              c:/program files (x86)/gnu tools arm embedded/5.4 2016q3/bin/../lib/gcc/arm-none-eabi/5.4.1/../../../../arm-none-eabi/lib/armv7e-m\libg.a(lib_a-mprec.o) (_calloc_r)
c:/program files (x86)/gnu tools arm embedded/5.4 2016q3/bin/../lib/gcc/arm-none-eabi/5.4.1/../../../../arm-none-eabi/lib/armv7e-m\libg.a(lib_a-locale.o)
                              c:/program files (x86)/gnu tools arm embedded/5.4 2016q3/bin/../lib/gcc/arm-none-eabi/5.4.1/../../../../arm-none-eabi/lib/armv7e-m\libg.a(lib_a-localeconv.o) (__global_locale)
c:/program files (x86)/gnu tools arm embedded/5.4 2016q3/bin/../lib/gcc/arm-none-eabi/5.4.1/../../../../arm-none-eabi/lib/armv7e-m\libg.a(lib_a-mbtowc_r.o)
                              c:/program files (x86)/gnu tools arm embedded/5.4 2016q3/bin/../lib/gcc/arm-none-eabi/5.4.1/../../../../arm-none-eabi/lib/armv7e-m\libg.a(lib_a-locale.o) (__ascii_mbtowc)
c:/program files (x86)/gnu tools arm embedded/5.4 2016q3/bin/../lib/gcc/arm-none-eabi/5.4.1/../../../../arm-none-eabi/lib/armv7e-m\libg.a(lib_a-memset.o)
                              c:/program files (x86)/gnu tools arm embedded/5.4 2016q3/bin/../lib/gcc/arm-none-eabi/5.4.1/../../../../arm-none-eabi/lib/armv7e-m\libg.a(lib_a-callocr.o) (memset)
c:/program files (x86)/gnu tools arm embedded/5.4 2016q3/bin/../lib/gcc/arm-none-eabi/5.4.1/../../../../arm-none-eabi/lib/armv7e-m\libg.a(lib_a-strcmp.o)
                              c:/program files (x86)/gnu tools arm embedded/5.4 2016q3/bin/../lib/gcc/arm-none-eabi/5.4.1/../../../../arm-none-eabi/lib/armv7e-m\libg.a(lib_a-locale.o) (strcmp)
c:/program files (x86)/gnu tools arm embedded/5.4 2016q3/bin/../lib/gcc/arm-none-eabi/5.4.1/../../../../arm-none-eabi/lib/armv7e-m\libg.a(lib_a-wctomb_r.o)
                              c:/program files (x86)/gnu tools arm embedded/5.4 2016q3/bin/../lib/gcc/arm-none-eabi/5.4.1/../../../../arm-none-eabi/lib/armv7e-m\libg.a(lib_a-locale.o) (__ascii_wctomb)
c:/program files (x86)/gnu tools arm embedded/5.4 2016q3/bin/../lib/gcc/arm-none-eabi/5.4.1/../../../../arm-none-eabi/lib/armv7e-m\libg.a(lib_a-ctype_.o)
                              c:/program files (x86)/gnu tools arm embedded/5.4 2016q3/bin/../lib/gcc/arm-none-eabi/5.4.1/../../../../arm-none-eabi/lib/armv7e-m\libg.a(lib_a-locale.o) (_ctype_)
c:/program files (x86)/gnu tools arm embedded/5.4 2016q3/bin/../lib/gcc/arm-none-eabi/5.4.1/armv7e-m\libgcc.a(_arm_unorddf2.o)
                              c:/program files (x86)/gnu tools arm embedded/5.4 2016q3/bin/../lib/gcc/arm-none-eabi/5.4.1/../../../../arm-none-eabi/lib/armv7e-m\libg.a(lib_a-svfprintf.o) (__aeabi_dcmpun)
c:/program files (x86)/gnu tools arm embedded/5.4 2016q3/bin/../lib/gcc/arm-none-eabi/5.4.1/armv7e-m\libgcc.a(_arm_fixdfsi.o)
                              c:/program files (x86)/gnu tools arm embedded/5.4 2016q3/bin/../lib/gcc/arm-none-eabi/5.4.1/../../../../arm-none-eabi/lib/armv7e-m\libg.a(lib_a-dtoa.o) (__aeabi_d2iz)
c:/program files (x86)/gnu tools arm embedded/5.4 2016q3/bin/../lib/gcc/arm-none-eabi/5.4.1/armv7e-m\libgcc.a(_aeabi_uldivmod.o)
                              c:/program files (x86)/gnu tools arm embedded/5.4 2016q3/bin/../lib/gcc/arm-none-eabi/5.4.1/../../../../arm-none-eabi/lib/armv7e-m\libg.a(lib_a-svfprintf.o) (__aeabi_uldivmod)
c:/program files (x86)/gnu tools arm embedded/5.4 2016q3/bin/../lib/gcc/arm-none-eabi/5.4.1/armv7e-m\libgcc.a(_udivmoddi4.o)
                              c:/program files (x86)/gnu tools arm embedded/5.4 2016q3/bin/../lib/gcc/arm-none-eabi/5.4.1/armv7e-m\libgcc.a(_aeabi_uldivmod.o) (__udivmoddi4)
c:/program files (x86)/gnu tools arm embedded/5.4 2016q3/bin/../lib/gcc/arm-none-eabi/5.4.1/armv7e-m\libgcc.a(_dvmd_tls.o)
                              c:/program files (x86)/gnu tools arm embedded/5.4 2016q3/bin/../lib/gcc/arm-none-eabi/5.4.1/armv7e-m\libgcc.a(_aeabi_uldivmod.o) (__aeabi_ldiv0)

Allocating common symbols
Common symbol       size              file

AudioSettings       0x4               ..\obj\preamp.o
mp3_buffer          0x4800            ..\obj\mp3.o
USBH_MSC_CSWData    0x10              ..\obj\usbh_msc_bot.o
errno               0x4               c:/program files (x86)/gnu tools arm embedded/5.4 2016q3/bin/../lib/gcc/arm-none-eabi/5.4.1/../../../../arm-none-eabi/lib/armv7e-m\libg.a(lib_a-reent.o)
MSC_Machine         0x20a             ..\obj\usbh_msc_core.o
USB_OTG_MSC_Core    0x5ac             ..\obj\tm_stm32f4_usb_msc_host.o
SD_Fs               0x234             ..\obj\mp3.o
USBH_CfgDesc        0x200             ..\obj\usbh_stdreq.o
USB_Fs              0x234             ..\obj\mp3.o
TM_UART5_Buffer     0x20              ..\obj\tm_stm32f4_usart.o
USBH_DataInBuffer   0x200             ..\obj\usbh_msc_scsi.o
USBH_MSC_Param      0x10              ..\obj\usbh_msc_scsi.o
USBH_MSC_BOTXferParam
                    0x10              ..\obj\usbh_msc_bot.o
hMP3Decoder         0x4               ..\obj\mp3.o
audio_help_buff     0x1e50            ..\obj\mp3.o
USBH_DataOutBuffer  0x200             ..\obj\usbh_msc_scsi.o
TM_USART6_Buffer    0x20              ..\obj\tm_stm32f4_usart.o
sys_delay           0x4               ..\obj\tm_stm32f4_delay.o
TM_USART3_Buffer    0x20              ..\obj\tm_stm32f4_usart.o
mp3_buffer2         0x4800            ..\obj\mp3.o
act_buff            0x1               ..\obj\mp3.o
TM_USART2_Buffer    0x20              ..\obj\tm_stm32f4_usart.o
MSC_Setup           0x8               ..\obj\usbh_msc_core.o
audio_buffer        0x1e50            ..\obj\mp3.o
TM_USART1_Buffer    0x20              ..\obj\tm_stm32f4_usart.o
TM_UART4_Buffer     0x20              ..\obj\tm_stm32f4_usart.o
TM_USB_MSCHOST_INT_Result
                    0x1               ..\obj\tm_stm32f4_usb_msc_host.o
USBH_MSC_CBWData    0x20              ..\obj\usbh_msc_bot.o
errbr               0x4               ..\obj\mp3.o
mult                0x4               ..\obj\tm_stm32f4_delay.o
USB_Host            0x148             ..\obj\tm_stm32f4_usb_msc_host.o
bytes_left          0x4               ..\obj\mp3.o
read_ptr            0x4               ..\obj\mp3.o
fil                 0x224             ..\obj\mp3.o
mp3FrameInfo        0x1c              ..\obj\mp3.o

Discarded input sections

 .text          0x00000000        0x0 ..\obj\tm_stm32f4_fatfs.o
 .data          0x00000000        0x0 ..\obj\tm_stm32f4_fatfs.o
 .bss           0x00000000        0x0 ..\obj\tm_stm32f4_fatfs.o
 .text.TM_FATFS_GetDriveSize
                0x00000000       0x54 ..\obj\tm_stm32f4_fatfs.o
 .text.TM_FATFS_DriveSize
                0x00000000       0x3c ..\obj\tm_stm32f4_fatfs.o
 .text.TM_FATFS_USBDriveSize
                0x00000000       0x3c ..\obj\tm_stm32f4_fatfs.o
 .text.TM_FATFS_TruncateBeginning
                0x00000000       0xb4 ..\obj\tm_stm32f4_fatfs.o
 .text.TM_FATFS_CheckCardDetectPin
                0x00000000        0x4 ..\obj\tm_stm32f4_fatfs.o
 .text.TM_FATFS_SearchCallback
                0x00000000        0x4 ..\obj\tm_stm32f4_fatfs.o
 .text.scan_files
                0x00000000       0xc8 ..\obj\tm_stm32f4_fatfs.o
 .text.TM_FATFS_Search
                0x00000000       0x48 ..\obj\tm_stm32f4_fatfs.o
 .rodata.str1.4
                0x00000000        0xc ..\obj\tm_stm32f4_fatfs.o
 .debug_info    0x00000000      0xb52 ..\obj\tm_stm32f4_fatfs.o
 .debug_abbrev  0x00000000      0x1ff ..\obj\tm_stm32f4_fatfs.o
 .debug_loc     0x00000000      0x6cc ..\obj\tm_stm32f4_fatfs.o
 .debug_aranges
                0x00000000       0x58 ..\obj\tm_stm32f4_fatfs.o
 .debug_ranges  0x00000000       0x48 ..\obj\tm_stm32f4_fatfs.o
 .debug_line    0x00000000      0x328 ..\obj\tm_stm32f4_fatfs.o
 .debug_str     0x00000000      0x60f ..\obj\tm_stm32f4_fatfs.o
 .comment       0x00000000       0x6f ..\obj\tm_stm32f4_fatfs.o
 .debug_frame   0x00000000      0x130 ..\obj\tm_stm32f4_fatfs.o
 .ARM.attributes
                0x00000000       0x33 ..\obj\tm_stm32f4_fatfs.o
 .text          0x00000000        0x0 ..\obj\unicode.o
 .data          0x00000000        0x0 ..\obj\unicode.o
 .bss           0x00000000        0x0 ..\obj\unicode.o
 .debug_info    0x00000000       0x59 ..\obj\unicode.o
 .debug_abbrev  0x00000000       0x24 ..\obj\unicode.o
 .debug_aranges
                0x00000000       0x18 ..\obj\unicode.o
 .debug_line    0x00000000       0x1d ..\obj\unicode.o
 .debug_str     0x00000000      0x115 ..\obj\unicode.o
 .comment       0x00000000       0x6f ..\obj\unicode.o
 .ARM.attributes
                0x00000000       0x33 ..\obj\unicode.o
 .text          0x00000000        0x0 ..\obj\stm32f4xx_syscfg.o
 .data          0x00000000        0x0 ..\obj\stm32f4xx_syscfg.o
 .bss           0x00000000        0x0 ..\obj\stm32f4xx_syscfg.o
 .text.SYSCFG_DeInit
                0x00000000       0x18 ..\obj\stm32f4xx_syscfg.o
 .text.SYSCFG_MemoryRemapConfig
                0x00000000        0xc ..\obj\stm32f4xx_syscfg.o
 .text.SYSCFG_EXTILineConfig
                0x00000000       0x2c ..\obj\stm32f4xx_syscfg.o
 .text.SYSCFG_ETH_MediaInterfaceConfig
                0x00000000        0xc ..\obj\stm32f4xx_syscfg.o
 .text.SYSCFG_CompensationCellCmd
                0x00000000        0xc ..\obj\stm32f4xx_syscfg.o
 .text.SYSCFG_GetCompensationCellStatus
                0x00000000       0x10 ..\obj\stm32f4xx_syscfg.o
 .debug_info    0x00000000      0x2b6 ..\obj\stm32f4xx_syscfg.o
 .debug_abbrev  0x00000000      0x15f ..\obj\stm32f4xx_syscfg.o
 .debug_loc     0x00000000       0xa6 ..\obj\stm32f4xx_syscfg.o
 .debug_aranges
                0x00000000       0x48 ..\obj\stm32f4xx_syscfg.o
 .debug_ranges  0x00000000       0x38 ..\obj\stm32f4xx_syscfg.o
 .debug_line    0x00000000      0x253 ..\obj\stm32f4xx_syscfg.o
 .debug_str     0x00000000      0x304 ..\obj\stm32f4xx_syscfg.o
 .comment       0x00000000       0x6f ..\obj\stm32f4xx_syscfg.o
 .debug_frame   0x00000000       0x84 ..\obj\stm32f4xx_syscfg.o
 .ARM.attributes
                0x00000000       0x33 ..\obj\stm32f4xx_syscfg.o
 .text          0x00000000        0x0 ..\obj\usb_core.o
 .data          0x00000000        0x0 ..\obj\usb_core.o
 .bss           0x00000000        0x0 ..\obj\usb_core.o
 .text.USB_OTG_GetMode
                0x00000000        0xc ..\obj\usb_core.o
 .text.USB_OTG_IsDeviceMode
                0x00000000       0x10 ..\obj\usb_core.o
 .text.USB_OTG_ReadOtgItr
                0x00000000        0x8 ..\obj\usb_core.o
 .text.USB_OTG_StopHost
                0x00000000       0x48 ..\obj\usb_core.o
 .text          0x00000000        0x0 ..\obj\dqchan.o
 .data          0x00000000        0x0 ..\obj\dqchan.o
 .bss           0x00000000        0x0 ..\obj\dqchan.o
 .text          0x00000000        0x0 ..\obj\scalfact.o
 .data          0x00000000        0x0 ..\obj\scalfact.o
 .bss           0x00000000        0x0 ..\obj\scalfact.o
 .text          0x00000000        0x0 ..\obj\pcm.o
 .data          0x00000000        0x0 ..\obj\pcm.o
 .bss           0x00000000        0x0 ..\obj\pcm.o
 .debug_info    0x00000000       0xa0 ..\obj\pcm.o
 .debug_abbrev  0x00000000       0x4b ..\obj\pcm.o
 .debug_aranges
                0x00000000       0x18 ..\obj\pcm.o
 .debug_line    0x00000000      0x11d ..\obj\pcm.o
 .debug_str     0x00000000      0x192 ..\obj\pcm.o
 .comment       0x00000000       0x6f ..\obj\pcm.o
 .ARM.attributes
                0x00000000       0x33 ..\obj\pcm.o
 .text          0x00000000        0x0 ..\obj\i2c.o
 .data          0x00000000        0x0 ..\obj\i2c.o
 .bss           0x00000000        0x0 ..\obj\i2c.o
 .text          0x00000000        0x0 ..\obj\mp3.o
 .text.MP3_Debug
                0x00000000        0x4 ..\obj\mp3.o
 .text          0x00000000        0x0 ..\obj\bitstream.o
 .data          0x00000000        0x0 ..\obj\bitstream.o
 .bss           0x00000000        0x0 ..\obj\bitstream.o
 .text          0x00000000        0x0 ..\obj\dequant.o
 .data          0x00000000        0x0 ..\obj\dequant.o
 .bss           0x00000000        0x0 ..\obj\dequant.o
 .text          0x00000000        0x0 ..\obj\tm_stm32f4_exti.o
 .data          0x00000000        0x0 ..\obj\tm_stm32f4_exti.o
 .bss           0x00000000        0x0 ..\obj\tm_stm32f4_exti.o
 .text.TM_EXTI_Detach
                0x00000000       0x24 ..\obj\tm_stm32f4_exti.o
 .text.TM_EXTI_DeInit
                0x00000000       0x30 ..\obj\tm_stm32f4_exti.o
 .text          0x00000000        0x0 ..\obj\hufftabs.o
 .data          0x00000000        0x0 ..\obj\hufftabs.o
 .bss           0x00000000        0x0 ..\obj\hufftabs.o
 .text          0x00000000        0x0 ..\obj\imdct.o
 .data          0x00000000        0x0 ..\obj\imdct.o
 .bss           0x00000000        0x0 ..\obj\imdct.o
 .text          0x00000000        0x0 ..\obj\timer.o
 .data          0x00000000        0x0 ..\obj\timer.o
 .bss           0x00000000        0x0 ..\obj\timer.o
 .text.TIMER3_Configuration
                0x00000000       0x68 ..\obj\timer.o
 .text          0x00000000        0x0 ..\obj\usbh_hcs.o
 .data          0x00000000        0x0 ..\obj\usbh_hcs.o
 .bss           0x00000000        0x0 ..\obj\usbh_hcs.o
 .text          0x00000000        0x0 ..\obj\stm32f4xx_usart.o
 .data          0x00000000        0x0 ..\obj\stm32f4xx_usart.o
 .bss           0x00000000        0x0 ..\obj\stm32f4xx_usart.o
 .text.USART_StructInit
                0x00000000       0x18 ..\obj\stm32f4xx_usart.o
 .text.USART_ClockInit
                0x00000000       0x24 ..\obj\stm32f4xx_usart.o
 .text.USART_ClockStructInit
                0x00000000        0xc ..\obj\stm32f4xx_usart.o
 .text.USART_Cmd
                0x00000000       0x1c ..\obj\stm32f4xx_usart.o
 .text.USART_SetPrescaler
                0x00000000       0x14 ..\obj\stm32f4xx_usart.o
 .text.USART_OverSampling8Cmd
                0x00000000       0x1c ..\obj\stm32f4xx_usart.o
 .text.USART_OneBitMethodCmd
                0x00000000       0x1c ..\obj\stm32f4xx_usart.o
 .text.USART_SendData
                0x00000000        0x8 ..\obj\stm32f4xx_usart.o
 .text.USART_ReceiveData
                0x00000000        0x8 ..\obj\stm32f4xx_usart.o
 .text.USART_SetAddress
                0x00000000       0x18 ..\obj\stm32f4xx_usart.o
 .text.USART_ReceiverWakeUpCmd
                0x00000000       0x1c ..\obj\stm32f4xx_usart.o
 .text.USART_WakeUpConfig
                0x00000000       0x18 ..\obj\stm32f4xx_usart.o
 .text.USART_LINBreakDetectLengthConfig
                0x00000000       0x18 ..\obj\stm32f4xx_usart.o
 .text.USART_LINCmd
                0x00000000       0x1c ..\obj\stm32f4xx_usart.o
 .text.USART_SendBreak
                0x00000000        0xc ..\obj\stm32f4xx_usart.o
 .text.USART_HalfDuplexCmd
                0x00000000       0x1c ..\obj\stm32f4xx_usart.o
 .text.USART_SetGuardTime
                0x00000000       0x14 ..\obj\stm32f4xx_usart.o
 .text.USART_SmartCardCmd
                0x00000000       0x1c ..\obj\stm32f4xx_usart.o
 .text.USART_SmartCardNACKCmd
                0x00000000       0x1c ..\obj\stm32f4xx_usart.o
 .text.USART_IrDAConfig
                0x00000000       0x18 ..\obj\stm32f4xx_usart.o
 .text.USART_IrDACmd
                0x00000000       0x1c ..\obj\stm32f4xx_usart.o
 .text.USART_DMACmd
                0x00000000       0x18 ..\obj\stm32f4xx_usart.o
 .text.USART_ITConfig
                0x00000000       0x38 ..\obj\stm32f4xx_usart.o
 .text.USART_GetFlagStatus
                0x00000000        0xc ..\obj\stm32f4xx_usart.o
 .text.USART_ClearFlag
                0x00000000        0x8 ..\obj\stm32f4xx_usart.o
 .text.USART_GetITStatus
                0x00000000       0x44 ..\obj\stm32f4xx_usart.o
 .text.USART_ClearITPendingBit
                0x00000000       0x10 ..\obj\stm32f4xx_usart.o
 .text          0x00000000        0x0 ..\obj\usbh_stdreq.o
 .data          0x00000000        0x0 ..\obj\usbh_stdreq.o
 .text.USBH_SetInterface
                0x00000000       0x1c ..\obj\usbh_stdreq.o
 .text.USBH_GetNextDesc
                0x00000000       0x10 ..\obj\usbh_stdreq.o
 .text          0x00000000        0x0 ..\obj\mp3tabs.o
 .data          0x00000000        0x0 ..\obj\mp3tabs.o
 .bss           0x00000000        0x0 ..\obj\mp3tabs.o
 .text          0x00000000        0x0 ..\obj\str.o
 .data          0x00000000        0x0 ..\obj\str.o
 .bss           0x00000000        0x0 ..\obj\str.o
 .text          0x00000000        0x0 ..\obj\subband.o
 .data          0x00000000        0x0 ..\obj\subband.o
 .bss           0x00000000        0x0 ..\obj\subband.o
 .text          0x00000000        0x0 ..\obj\diskio.o
 .bss           0x00000000        0x0 ..\obj\diskio.o
 .text.TM_FATFS_SD_disk_initialize
                0x00000000        0x4 ..\obj\diskio.o
 .text.TM_FATFS_USB_disk_initialize
                0x00000000        0x4 ..\obj\diskio.o
 .text.TM_FATFS_SD_disk_status
                0x00000000        0x4 ..\obj\diskio.o
 .text.TM_FATFS_USB_disk_status
                0x00000000        0x4 ..\obj\diskio.o
 .text.TM_FATFS_SD_disk_ioctl
                0x00000000        0x4 ..\obj\diskio.o
 .text.TM_FATFS_USB_disk_ioctl
                0x00000000        0x4 ..\obj\diskio.o
 .text.TM_FATFS_SD_disk_read
                0x00000000        0x4 ..\obj\diskio.o
 .text.TM_FATFS_USB_disk_read
                0x00000000        0x4 ..\obj\diskio.o
 .text.TM_FATFS_SD_disk_write
                0x00000000        0x4 ..\obj\diskio.o
 .text.TM_FATFS_USB_disk_write
                0x00000000        0x4 ..\obj\diskio.o
 .text.TM_FATFS_AddDriver
                0x00000000       0x38 ..\obj\diskio.o
 .text.TM_FATFS_SD_SDIO_disk_initialize
                0x00000000        0x4 ..\obj\diskio.o
 .text.TM_FATFS_SD_SDIO_disk_status
                0x00000000        0x4 ..\obj\diskio.o
 .text.TM_FATFS_SD_SDIO_disk_ioctl
                0x00000000        0x4 ..\obj\diskio.o
 .text.TM_FATFS_SD_SDIO_disk_read
                0x00000000        0x4 ..\obj\diskio.o
 .text.TM_FATFS_SD_SDIO_disk_write
                0x00000000        0x4 ..\obj\diskio.o
 .text          0x00000000        0x0 ..\obj\startup_stm32f4xx.o
 .data          0x00000000        0x0 ..\obj\startup_stm32f4xx.o
 .bss           0x00000000        0x0 ..\obj\startup_stm32f4xx.o
 .text          0x00000000        0x0 ..\obj\fatfs_usb.o
 .bss           0x00000000        0x0 ..\obj\fatfs_usb.o
 .text          0x00000000        0x0 ..\obj\mp3dec.o
 .data          0x00000000        0x0 ..\obj\mp3dec.o
 .bss           0x00000000        0x0 ..\obj\mp3dec.o
 .text.MP3FreeDecoder
                0x00000000        0xc ..\obj\mp3dec.o
 .text.MP3GetNextFrameInfo
                0x00000000       0x3c ..\obj\mp3dec.o
 .text          0x00000000        0x0 ..\obj\main.o
 .data          0x00000000        0x0 ..\obj\main.o
 .bss           0x00000000        0x0 ..\obj\main.o
 .text          0x00000000        0x0 ..\obj\stm32f4xx_rcc.o
 .bss           0x00000000        0x0 ..\obj\stm32f4xx_rcc.o
 .text.RCC_DeInit
                0x00000000       0x34 ..\obj\stm32f4xx_rcc.o
 .text.RCC_HSEConfig
                0x00000000       0x10 ..\obj\stm32f4xx_rcc.o
 .text.RCC_AdjustHSICalibrationValue
                0x00000000       0x14 ..\obj\stm32f4xx_rcc.o
 .text.RCC_HSICmd
                0x00000000        0xc ..\obj\stm32f4xx_rcc.o
 .text.RCC_LSEConfig
                0x00000000       0x28 ..\obj\stm32f4xx_rcc.o
 .text.RCC_LSICmd
                0x00000000        0xc ..\obj\stm32f4xx_rcc.o
 .text.RCC_PLLConfig
                0x00000000       0x24 ..\obj\stm32f4xx_rcc.o
 .text.RCC_PLLCmd
                0x00000000        0xc ..\obj\stm32f4xx_rcc.o
 .text.RCC_PLLI2SConfig
                0x00000000       0x14 ..\obj\stm32f4xx_rcc.o
 .text.RCC_PLLI2SCmd
                0x00000000        0xc ..\obj\stm32f4xx_rcc.o
 .text.RCC_ClockSecuritySystemCmd
                0x00000000        0xc ..\obj\stm32f4xx_rcc.o
 .text.RCC_MCO1Config
                0x00000000       0x14 ..\obj\stm32f4xx_rcc.o
 .text.RCC_MCO2Config
                0x00000000       0x14 ..\obj\stm32f4xx_rcc.o
 .text.RCC_SYSCLKConfig
                0x00000000       0x14 ..\obj\stm32f4xx_rcc.o
 .text.RCC_GetSYSCLKSource
                0x00000000       0x10 ..\obj\stm32f4xx_rcc.o
 .text.RCC_HCLKConfig
                0x00000000       0x14 ..\obj\stm32f4xx_rcc.o
 .text.RCC_PCLK1Config
                0x00000000       0x14 ..\obj\stm32f4xx_rcc.o
 .text.RCC_PCLK2Config
                0x00000000       0x14 ..\obj\stm32f4xx_rcc.o
 .text.RCC_RTCCLKConfig
                0x00000000       0x30 ..\obj\stm32f4xx_rcc.o
 .text.RCC_RTCCLKCmd
                0x00000000        0xc ..\obj\stm32f4xx_rcc.o
 .text.RCC_BackupResetCmd
                0x00000000        0xc ..\obj\stm32f4xx_rcc.o
 .text.RCC_I2SCLKConfig
                0x00000000        0xc ..\obj\stm32f4xx_rcc.o
 .text.RCC_AHB3PeriphClockCmd
                0x00000000       0x1c ..\obj\stm32f4xx_rcc.o
 .text.RCC_AHB1PeriphResetCmd
                0x00000000       0x1c ..\obj\stm32f4xx_rcc.o
 .text.RCC_AHB2PeriphResetCmd
                0x00000000       0x1c ..\obj\stm32f4xx_rcc.o
 .text.RCC_AHB3PeriphResetCmd
                0x00000000       0x1c ..\obj\stm32f4xx_rcc.o
 .text.RCC_AHB1PeriphClockLPModeCmd
                0x00000000       0x1c ..\obj\stm32f4xx_rcc.o
 .text.RCC_AHB2PeriphClockLPModeCmd
                0x00000000       0x1c ..\obj\stm32f4xx_rcc.o
 .text.RCC_AHB3PeriphClockLPModeCmd
                0x00000000       0x1c ..\obj\stm32f4xx_rcc.o
 .text.RCC_APB1PeriphClockLPModeCmd
                0x00000000       0x1c ..\obj\stm32f4xx_rcc.o
 .text.RCC_APB2PeriphClockLPModeCmd
                0x00000000       0x1c ..\obj\stm32f4xx_rcc.o
 .text.RCC_ITConfig
                0x00000000       0x1c ..\obj\stm32f4xx_rcc.o
 .text.RCC_GetFlagStatus
                0x00000000       0x28 ..\obj\stm32f4xx_rcc.o
 .text.RCC_WaitForHSEStartUp
                0x00000000       0x34 ..\obj\stm32f4xx_rcc.o
 .text.RCC_ClearFlag
                0x00000000       0x10 ..\obj\stm32f4xx_rcc.o
 .text.RCC_GetITStatus
                0x00000000       0x14 ..\obj\stm32f4xx_rcc.o
 .text.RCC_ClearITPendingBit
                0x00000000        0xc ..\obj\stm32f4xx_rcc.o
 .text          0x00000000        0x0 ..\obj\tm_stm32f4_usart.o
 .bss           0x00000000        0x0 ..\obj\tm_stm32f4_usart.o
 .text.TM_USART_BufferEmpty
                0x00000000       0x1c ..\obj\tm_stm32f4_usart.o
 .text.TM_USART_BufferFull
                0x00000000       0x14 ..\obj\tm_stm32f4_usart.o
 .text.TM_USART_ClearBuffer
                0x00000000       0x10 ..\obj\tm_stm32f4_usart.o
 .text.TM_USART_SetCustomStringEndCharacter
                0x00000000        0xc ..\obj\tm_stm32f4_usart.o
 .text.TM_USART_Puts
                0x00000000       0x38 ..\obj\tm_stm32f4_usart.o
 .text.TM_USART_Send
                0x00000000       0x40 ..\obj\tm_stm32f4_usart.o
 .text.TM_USART_InitWithFlowControl
                0x00000000       0xdc ..\obj\tm_stm32f4_usart.o
 .text          0x00000000        0x0 ..\obj\tm_stm32f4_rotary_encoder.o
 .data          0x00000000        0x0 ..\obj\tm_stm32f4_rotary_encoder.o
 .bss           0x00000000        0x0 ..\obj\tm_stm32f4_rotary_encoder.o
 .text.TM_RE_SetMode
                0x00000000        0x4 ..\obj\tm_stm32f4_rotary_encoder.o
 .text          0x00000000        0x0 ..\obj\fatfs_sd.o
 .text.TM_FATFS_Detect
                0x00000000        0x4 ..\obj\fatfs_sd.o
 .text.TM_FATFS_WriteEnabled
                0x00000000        0x4 ..\obj\fatfs_sd.o
 .text          0x00000000        0x0 ..\obj\usbh_msc_core.o
 .text          0x00000000        0x0 ..\obj\bt.o
 .data          0x00000000        0x0 ..\obj\bt.o
 .text          0x00000000        0x0 ..\obj\gpio.o
 .data          0x00000000        0x0 ..\obj\gpio.o
 .bss           0x00000000        0x0 ..\obj\gpio.o
 .text.Gpio_BT_Enable_Cmd
                0x00000000       0x38 ..\obj\gpio.o
 .text.Gpio_BT_Disable_Cmd
                0x00000000       0x28 ..\obj\gpio.o
 .text          0x00000000        0x0 ..\obj\tm_stm32f4_delay.o
 .data          0x00000000        0x0 ..\obj\tm_stm32f4_delay.o
 .text.TM_DELAY_EnableDelayTimer
                0x00000000       0x1c ..\obj\tm_stm32f4_delay.o
 .text.TM_DELAY_DisableDelayTimer
                0x00000000       0x10 ..\obj\tm_stm32f4_delay.o
 .text.TM_DELAY_TimerCreate
                0x00000000       0x4c ..\obj\tm_stm32f4_delay.o
 .text.TM_DELAY_TimerDelete
                0x00000000       0x70 ..\obj\tm_stm32f4_delay.o
 .text.TM_DELAY_TimerStop
                0x00000000        0x8 ..\obj\tm_stm32f4_delay.o
 .text.TM_DELAY_TimerStart
                0x00000000        0x8 ..\obj\tm_stm32f4_delay.o
 .text.TM_DELAY_TimerReset
                0x00000000        0x8 ..\obj\tm_stm32f4_delay.o
 .text.TM_DELAY_TimerAutoReload
                0x00000000        0x4 ..\obj\tm_stm32f4_delay.o
 .text.TM_DELAY_TimerAutoReloadValue
                0x00000000        0x4 ..\obj\tm_stm32f4_delay.o
 .text          0x00000000        0x0 ..\obj\file.o
 .data          0x00000000        0x0 ..\obj\file.o
 .bss           0x00000000        0x0 ..\obj\file.o
 .text          0x00000000        0x0 ..\obj\syscall.o
 .data          0x00000000        0x0 ..\obj\syscall.o
 .bss           0x00000000        0x0 ..\obj\syscall.o
 .debug_info    0x00000000       0x75 ..\obj\syscall.o
 .debug_abbrev  0x00000000       0x24 ..\obj\syscall.o
 .debug_aranges
                0x00000000       0x18 ..\obj\syscall.o
 .debug_line    0x00000000       0x1d ..\obj\syscall.o
 .debug_str     0x00000000      0x152 ..\obj\syscall.o
 .comment       0x00000000       0x6f ..\obj\syscall.o
 .ARM.attributes
                0x00000000       0x33 ..\obj\syscall.o
 .text          0x00000000        0x0 ..\obj\tm_stm32f4_spi.o
 .data          0x00000000        0x0 ..\obj\tm_stm32f4_spi.o
 .bss           0x00000000        0x0 ..\obj\tm_stm32f4_spi.o
 .text.TM_SPI_GetPrescalerFromMaxFrequency
                0x00000000       0x4c ..\obj\tm_stm32f4_spi.o
 .text.TM_SPI_SetDataSize
                0x00000000       0x3c ..\obj\tm_stm32f4_spi.o
 .text.TM_SPI_SendMulti
                0x00000000       0x50 ..\obj\tm_stm32f4_spi.o
 .text.TM_SPI_SendMulti16
                0x00000000       0x54 ..\obj\tm_stm32f4_spi.o
 .text.TM_SPI_WriteMulti16
                0x00000000       0x4c ..\obj\tm_stm32f4_spi.o
 .text.TM_SPI_ReadMulti16
                0x00000000       0x4c ..\obj\tm_stm32f4_spi.o
 .text.TM_SPI_InitWithMode
                0x00000000       0x28 ..\obj\tm_stm32f4_spi.o
 .text.TM_SPI_InitFull
                0x00000000       0x2c ..\obj\tm_stm32f4_spi.o
 .text          0x00000000        0x0 ..\obj\menu.o
 .text          0x00000000        0x0 ..\obj\usbh_core.o
 .text          0x00000000        0x0 ..\obj\stm32f4xx_gpio.o
 .data          0x00000000        0x0 ..\obj\stm32f4xx_gpio.o
 .bss           0x00000000        0x0 ..\obj\stm32f4xx_gpio.o
 .text.GPIO_DeInit
                0x00000000      0x104 ..\obj\stm32f4xx_gpio.o
 .text.GPIO_StructInit
                0x00000000       0x14 ..\obj\stm32f4xx_gpio.o
 .text.GPIO_PinLockConfig
                0x00000000       0x24 ..\obj\stm32f4xx_gpio.o
 .text.GPIO_ReadInputData
                0x00000000        0x8 ..\obj\stm32f4xx_gpio.o
 .text.GPIO_ReadOutputDataBit
                0x00000000        0xc ..\obj\stm32f4xx_gpio.o
 .text.GPIO_ReadOutputData
                0x00000000        0x8 ..\obj\stm32f4xx_gpio.o
 .text.GPIO_Write
                0x00000000        0x4 ..\obj\stm32f4xx_gpio.o
 .text.GPIO_ToggleBits
                0x00000000        0x8 ..\obj\stm32f4xx_gpio.o
 .text          0x00000000        0x0 ..\obj\id3.o
 .data          0x00000000        0x0 ..\obj\id3.o
 .bss           0x00000000        0x0 ..\obj\id3.o
 .text          0x00000000        0x0 ..\obj\usbh_msc_scsi.o
 .bss           0x00000000        0x0 ..\obj\usbh_msc_scsi.o
 .text          0x00000000        0x0 ..\obj\system_stm32f4xx.o
 .bss           0x00000000        0x0 ..\obj\system_stm32f4xx.o
 .text.SystemCoreClockUpdate
                0x00000000       0x8c ..\obj\system_stm32f4xx.o
 .text          0x00000000        0x0 ..\obj\DMA.o
 .bss           0x00000000        0x0 ..\obj\DMA.o
 .text          0x00000000        0x0 ..\obj\syscalls.o
 .data          0x00000000        0x0 ..\obj\syscalls.o
 .text.link     0x00000000        0x8 ..\obj\syscalls.o
 .text._close   0x00000000        0x8 ..\obj\syscalls.o
 .text._fstat   0x00000000        0xc ..\obj\syscalls.o
 .text._isatty  0x00000000        0x4 ..\obj\syscalls.o
 .text._lseek   0x00000000        0x4 ..\obj\syscalls.o
 .text._read    0x00000000        0x4 ..\obj\syscalls.o
 .text._write   0x00000000        0x4 ..\obj\syscalls.o
 .text.abort    0x00000000        0x4 ..\obj\syscalls.o
 .text          0x00000000        0x0 ..\obj\stm32f4xx_dma.o
 .data          0x00000000        0x0 ..\obj\stm32f4xx_dma.o
 .bss           0x00000000        0x0 ..\obj\stm32f4xx_dma.o
 .text.DMA_DeInit
                0x00000000      0x154 ..\obj\stm32f4xx_dma.o
 .text.DMA_Init
                0x00000000       0x58 ..\obj\stm32f4xx_dma.o
 .text.DMA_StructInit
                0x00000000       0x24 ..\obj\stm32f4xx_dma.o
 .text.DMA_Cmd  0x00000000       0x18 ..\obj\stm32f4xx_dma.o
 .text.DMA_PeriphIncOffsetSizeConfig
                0x00000000       0x18 ..\obj\stm32f4xx_dma.o
 .text.DMA_FlowControllerConfig
                0x00000000       0x18 ..\obj\stm32f4xx_dma.o
 .text.DMA_SetCurrDataCounter
                0x00000000        0x4 ..\obj\stm32f4xx_dma.o
 .text.DMA_GetCurrDataCounter
                0x00000000        0x8 ..\obj\stm32f4xx_dma.o
 .text.DMA_DoubleBufferModeConfig
                0x00000000       0x18 ..\obj\stm32f4xx_dma.o
 .text.DMA_DoubleBufferModeCmd
                0x00000000       0x18 ..\obj\stm32f4xx_dma.o
 .text.DMA_MemoryTargetConfig
                0x00000000        0xc ..\obj\stm32f4xx_dma.o
 .text.DMA_GetCurrentMemoryTarget
                0x00000000        0x8 ..\obj\stm32f4xx_dma.o
 .text.DMA_GetCmdStatus
                0x00000000        0x8 ..\obj\stm32f4xx_dma.o
 .text.DMA_GetFIFOStatus
                0x00000000        0x8 ..\obj\stm32f4xx_dma.o
 .text.DMA_GetFlagStatus
                0x00000000       0x3c ..\obj\stm32f4xx_dma.o
 .text          0x00000000        0x0 ..\obj\usbh_usr.o
 .text          0x00000000        0x0 ..\obj\i2s.o
 .data          0x00000000        0x0 ..\obj\i2s.o
 .bss           0x00000000        0x0 ..\obj\i2s.o
 .text          0x00000000        0x0 ..\obj\usb_bsp.o
 .data          0x00000000        0x0 ..\obj\usb_bsp.o
 .bss           0x00000000        0x0 ..\obj\usb_bsp.o
 .text.BSP_Init
                0x00000000        0x4 ..\obj\usb_bsp.o
 .text          0x00000000        0x0 ..\obj\tm_stm32f4_usb_msc_host.o
 .data          0x00000000        0x0 ..\obj\tm_stm32f4_usb_msc_host.o
 .text.TM_USB_MSCHOST_DeInit
                0x00000000       0x18 ..\obj\tm_stm32f4_usb_msc_host.o
 .text          0x00000000        0x0 ..\obj\stproc.o
 .data          0x00000000        0x0 ..\obj\stproc.o
 .bss           0x00000000        0x0 ..\obj\stproc.o
 .text          0x00000000        0x0 ..\obj\huffman.o
 .data          0x00000000        0x0 ..\obj\huffman.o
 .bss           0x00000000        0x0 ..\obj\huffman.o
 .text          0x00000000        0x0 ..\obj\trigtabs_fixpt.o
 .data          0x00000000        0x0 ..\obj\trigtabs_fixpt.o
 .bss           0x00000000        0x0 ..\obj\trigtabs_fixpt.o
 .text          0x00000000        0x0 ..\obj\preamp.o
 .data          0x00000000        0x0 ..\obj\preamp.o
 .bss           0x00000000        0x0 ..\obj\preamp.o
 .text          0x00000000        0x0 ..\obj\buffers.o
 .data          0x00000000        0x0 ..\obj\buffers.o
 .text.xmp3fixpt_FreeBuffers
                0x00000000        0x4 ..\obj\buffers.o
 .text          0x00000000        0x0 ..\obj\ff.o
 .data          0x00000000        0x0 ..\obj\ff.o
 .text.get_achar
                0x00000000       0x28 ..\obj\ff.o
 .text.pattern_matching
                0x00000000       0xbc ..\obj\ff.o
 .text.dir_remove
                0x00000000       0x34 ..\obj\ff.o
 .text.f_write  0x00000000      0x1ac ..\obj\ff.o
 .text.putc_bfd
                0x00000000       0x48 ..\obj\ff.o
 .text.f_chdrive
                0x00000000       0x28 ..\obj\ff.o
 .text.f_chdir  0x00000000       0x58 ..\obj\ff.o
 .text.f_getcwd
                0x00000000      0x16c ..\obj\ff.o
 .text.f_findnext
                0x00000000       0x38 ..\obj\ff.o
 .text.f_findfirst
                0x00000000       0x20 ..\obj\ff.o
 .text.f_stat   0x00000000       0x44 ..\obj\ff.o
 .text.f_getfree
                0x00000000       0xe4 ..\obj\ff.o
 .text.f_truncate
                0x00000000       0xc0 ..\obj\ff.o
 .text.f_unlink
                0x00000000       0xcc ..\obj\ff.o
 .text.f_mkdir  0x00000000      0x1b8 ..\obj\ff.o
 .text.f_chmod  0x00000000       0x68 ..\obj\ff.o
 .text.f_rename
                0x00000000      0x128 ..\obj\ff.o
 .text.f_utime  0x00000000       0x6c ..\obj\ff.o
 .text.f_getlabel
                0x00000000       0xb0 ..\obj\ff.o
 .text.f_setlabel
                0x00000000      0x1d0 ..\obj\ff.o
 .text.f_mkfs   0x00000000      0x630 ..\obj\ff.o
 .text.f_gets   0x00000000       0x54 ..\obj\ff.o
 .text.f_putc   0x00000000       0x48 ..\obj\ff.o
 .text.f_puts   0x00000000       0x58 ..\obj\ff.o
 .text.f_printf
                0x00000000      0x31c ..\obj\ff.o
 .text          0x00000000        0x0 ..\obj\usb_hcd.o
 .data          0x00000000        0x0 ..\obj\usb_hcd.o
 .bss           0x00000000        0x0 ..\obj\usb_hcd.o
 .text.HCD_GetHCState
                0x00000000        0x8 ..\obj\usb_hcd.o
 .text.HCD_HC_Init
                0x00000000        0x8 ..\obj\usb_hcd.o
 .text          0x00000000        0x0 ..\obj\usbh_msc_bot.o
 .data          0x00000000        0x0 ..\obj\usbh_msc_bot.o
 .text          0x00000000        0x0 ..\obj\stm32f4xx_spi.o
 .data          0x00000000        0x0 ..\obj\stm32f4xx_spi.o
 .bss           0x00000000        0x0 ..\obj\stm32f4xx_spi.o
 .text.SPI_I2S_DeInit
                0x00000000       0x64 ..\obj\stm32f4xx_spi.o
 .text.I2S_Init
                0x00000000       0xec ..\obj\stm32f4xx_spi.o
 .text.I2S_StructInit
                0x00000000       0x14 ..\obj\stm32f4xx_spi.o
 .text.SPI_Cmd  0x00000000       0x1c ..\obj\stm32f4xx_spi.o
 .text.I2S_Cmd  0x00000000       0x1c ..\obj\stm32f4xx_spi.o
 .text.SPI_DataSizeConfig
                0x00000000       0x18 ..\obj\stm32f4xx_spi.o
 .text.SPI_BiDirectionalLineConfig
                0x00000000       0x20 ..\obj\stm32f4xx_spi.o
 .text.SPI_NSSInternalSoftwareConfig
                0x00000000       0x24 ..\obj\stm32f4xx_spi.o
 .text.SPI_SSOutputCmd
                0x00000000       0x1c ..\obj\stm32f4xx_spi.o
 .text.SPI_TIModeCmd
                0x00000000       0x1c ..\obj\stm32f4xx_spi.o
 .text.I2S_FullDuplexConfig
                0x00000000       0x4c ..\obj\stm32f4xx_spi.o
 .text.SPI_I2S_ReceiveData
                0x00000000        0x8 ..\obj\stm32f4xx_spi.o
 .text.SPI_I2S_SendData
                0x00000000        0x4 ..\obj\stm32f4xx_spi.o
 .text.SPI_CalculateCRC
                0x00000000       0x1c ..\obj\stm32f4xx_spi.o
 .text.SPI_TransmitCRC
                0x00000000        0xc ..\obj\stm32f4xx_spi.o
 .text.SPI_GetCRC
                0x00000000        0xc ..\obj\stm32f4xx_spi.o
 .text.SPI_GetCRCPolynomial
                0x00000000        0x8 ..\obj\stm32f4xx_spi.o
 .text.SPI_I2S_ITConfig
                0x00000000       0x24 ..\obj\stm32f4xx_spi.o
 .text.SPI_I2S_GetFlagStatus
                0x00000000        0xc ..\obj\stm32f4xx_spi.o
 .text.SPI_I2S_ClearFlag
                0x00000000        0x8 ..\obj\stm32f4xx_spi.o
 .text.SPI_I2S_GetITStatus
                0x00000000       0x30 ..\obj\stm32f4xx_spi.o
 .text.SPI_I2S_ClearITPendingBit
                0x00000000       0x14 ..\obj\stm32f4xx_spi.o
 .text          0x00000000        0x0 ..\obj\dct32.o
 .data          0x00000000        0x0 ..\obj\dct32.o
 .bss           0x00000000        0x0 ..\obj\dct32.o
 .text          0x00000000        0x0 ..\obj\stm32f4xx_i2c.o
 .data          0x00000000        0x0 ..\obj\stm32f4xx_i2c.o
 .bss           0x00000000        0x0 ..\obj\stm32f4xx_i2c.o
 .text.I2C_DeInit
                0x00000000       0x64 ..\obj\stm32f4xx_i2c.o
 .text.I2C_StructInit
                0x00000000       0x1c ..\obj\stm32f4xx_i2c.o
 .text.I2C_AcknowledgeConfig
                0x00000000       0x1c ..\obj\stm32f4xx_i2c.o
 .text.I2C_OwnAddress2Config
                0x00000000       0x14 ..\obj\stm32f4xx_i2c.o
 .text.I2C_DualAddressCmd
                0x00000000       0x1c ..\obj\stm32f4xx_i2c.o
 .text.I2C_GeneralCallCmd
                0x00000000       0x1c ..\obj\stm32f4xx_i2c.o
 .text.I2C_SoftwareResetCmd
                0x00000000       0x1c ..\obj\stm32f4xx_i2c.o
 .text.I2C_StretchClockCmd
                0x00000000       0x1c ..\obj\stm32f4xx_i2c.o
 .text.I2C_FastModeDutyCycleConfig
                0x00000000       0x20 ..\obj\stm32f4xx_i2c.o
 .text.I2C_NACKPositionConfig
                0x00000000       0x20 ..\obj\stm32f4xx_i2c.o
 .text.I2C_SMBusAlertConfig
                0x00000000       0x20 ..\obj\stm32f4xx_i2c.o
 .text.I2C_ARPCmd
                0x00000000       0x1c ..\obj\stm32f4xx_i2c.o
 .text.I2C_ReceiveData
                0x00000000        0x8 ..\obj\stm32f4xx_i2c.o
 .text.I2C_TransmitPEC
                0x00000000       0x1c ..\obj\stm32f4xx_i2c.o
 .text.I2C_PECPositionConfig
                0x00000000       0x20 ..\obj\stm32f4xx_i2c.o
 .text.I2C_CalculatePEC
                0x00000000       0x1c ..\obj\stm32f4xx_i2c.o
 .text.I2C_GetPEC
                0x00000000        0x8 ..\obj\stm32f4xx_i2c.o
 .text.I2C_DMACmd
                0x00000000       0x1c ..\obj\stm32f4xx_i2c.o
 .text.I2C_DMALastTransferCmd
                0x00000000       0x1c ..\obj\stm32f4xx_i2c.o
 .text.I2C_ReadRegister
                0x00000000       0x18 ..\obj\stm32f4xx_i2c.o
 .text.I2C_ITConfig
                0x00000000       0x18 ..\obj\stm32f4xx_i2c.o
 .text.I2C_GetLastEvent
                0x00000000       0x10 ..\obj\stm32f4xx_i2c.o
 .text.I2C_ClearFlag
                0x00000000        0x8 ..\obj\stm32f4xx_i2c.o
 .text.I2C_GetITStatus
                0x00000000       0x20 ..\obj\stm32f4xx_i2c.o
 .text.I2C_ClearITPendingBit
                0x00000000        0x8 ..\obj\stm32f4xx_i2c.o
 .text          0x00000000        0x0 ..\obj\stm32f4xx_exti.o
 .data          0x00000000        0x0 ..\obj\stm32f4xx_exti.o
 .bss           0x00000000        0x0 ..\obj\stm32f4xx_exti.o
 .text.EXTI_DeInit
                0x00000000       0x1c ..\obj\stm32f4xx_exti.o
 .text.EXTI_Init
                0x00000000       0x90 ..\obj\stm32f4xx_exti.o
 .text.EXTI_StructInit
                0x00000000       0x10 ..\obj\stm32f4xx_exti.o
 .text.EXTI_GenerateSWInterrupt
                0x00000000       0x10 ..\obj\stm32f4xx_exti.o
 .text.EXTI_GetFlagStatus
                0x00000000       0x14 ..\obj\stm32f4xx_exti.o
 .text.EXTI_ClearFlag
                0x00000000        0xc ..\obj\stm32f4xx_exti.o
 .text.EXTI_GetITStatus
                0x00000000       0x1c ..\obj\stm32f4xx_exti.o
 .text.EXTI_ClearITPendingBit
                0x00000000        0xc ..\obj\stm32f4xx_exti.o
 .debug_info    0x00000000      0x35a ..\obj\stm32f4xx_exti.o
 .debug_abbrev  0x00000000      0x1c7 ..\obj\stm32f4xx_exti.o
 .debug_loc     0x00000000      0x1bc ..\obj\stm32f4xx_exti.o
 .debug_aranges
                0x00000000       0x58 ..\obj\stm32f4xx_exti.o
 .debug_ranges  0x00000000       0x48 ..\obj\stm32f4xx_exti.o
 .debug_line    0x00000000      0x290 ..\obj\stm32f4xx_exti.o
 .debug_str     0x00000000      0x352 ..\obj\stm32f4xx_exti.o
 .comment       0x00000000       0x6f ..\obj\stm32f4xx_exti.o
 .debug_frame   0x00000000       0xa4 ..\obj\stm32f4xx_exti.o
 .ARM.attributes
                0x00000000       0x33 ..\obj\stm32f4xx_exti.o
 .text          0x00000000        0x0 ..\obj\usbh_ioreq.o
 .data          0x00000000        0x0 ..\obj\usbh_ioreq.o
 .bss           0x00000000        0x0 ..\obj\usbh_ioreq.o
 .text.USBH_InterruptReceiveData
                0x00000000       0x4c ..\obj\usbh_ioreq.o
 .text.USBH_InterruptSendData
                0x00000000       0x4c ..\obj\usbh_ioreq.o
 .text.USBH_IsocReceiveData
                0x00000000       0x2c ..\obj\usbh_ioreq.o
 .text.USBH_IsocSendData
                0x00000000       0x2c ..\obj\usbh_ioreq.o
 .text          0x00000000        0x0 ..\obj\misc.o
 .data          0x00000000        0x0 ..\obj\misc.o
 .bss           0x00000000        0x0 ..\obj\misc.o
 .text.NVIC_SetVectorTable
                0x00000000       0x14 ..\obj\misc.o
 .text.NVIC_SystemLPConfig
                0x00000000       0x1c ..\obj\misc.o
 .text.SysTick_CLKSourceConfig
                0x00000000       0x18 ..\obj\misc.o
 .text          0x00000000        0x0 ..\obj\glcd.o
 .bss           0x00000000        0x0 ..\obj\glcd.o
 .text.GLCD_Delay
                0x00000000        0x8 ..\obj\glcd.o
 .text.GLCDEN   0x00000000       0x18 ..\obj\glcd.o
 .text.GLCD_Write_Block
                0x00000000       0x38 ..\obj\glcd.o
 .text          0x00000000        0x0 ..\obj\tm_stm32f4_gpio.o
 .data          0x00000000        0x0 ..\obj\tm_stm32f4_gpio.o
 .text.TM_GPIO_DeInit
                0x00000000       0x4c ..\obj\tm_stm32f4_gpio.o
 .text.TM_GPIO_SetPinAsInput
                0x00000000       0x28 ..\obj\tm_stm32f4_gpio.o
 .text.TM_GPIO_SetPinAsOutput
                0x00000000       0x30 ..\obj\tm_stm32f4_gpio.o
 .text.TM_GPIO_SetPinAsAnalog
                0x00000000       0x28 ..\obj\tm_stm32f4_gpio.o
 .text.TM_GPIO_SetPinAsAlternate
                0x00000000       0x30 ..\obj\tm_stm32f4_gpio.o
 .text.TM_GPIO_SetPullResistor
                0x00000000       0x30 ..\obj\tm_stm32f4_gpio.o
 .text.TM_GPIO_Lock
                0x00000000       0x10 ..\obj\tm_stm32f4_gpio.o
 .text.TM_GPIO_INT_DisableClock
                0x00000000       0x24 ..\obj\tm_stm32f4_gpio.o
 .text.TM_GPIO_GetUsedPins
                0x00000000       0x18 ..\obj\tm_stm32f4_gpio.o
 .text.TM_GPIO_GetFreePins
                0x00000000       0x1c ..\obj\tm_stm32f4_gpio.o
 .text          0x00000000        0x0 ..\obj\polyphase.o
 .data          0x00000000        0x0 ..\obj\polyphase.o
 .bss           0x00000000        0x0 ..\obj\polyphase.o
 .text          0x00000000        0x0 ..\obj\tm_stm32f4_timer_properties.o
 .data          0x00000000        0x0 ..\obj\tm_stm32f4_timer_properties.o
 .bss           0x00000000        0x0 ..\obj\tm_stm32f4_timer_properties.o
 .text.TM_TIMER_PROPERTIES_GetTimerProperties
                0x00000000       0xbc ..\obj\tm_stm32f4_timer_properties.o
 .text.TM_TIMER_PROPERTIES_GenerateDataForWorkingFrequency
                0x00000000       0xb0 ..\obj\tm_stm32f4_timer_properties.o
 .text.TM_TIMER_PROPERTIES_EnableClock
                0x00000000      0x120 ..\obj\tm_stm32f4_timer_properties.o
 .text.TM_TIMER_PROPERTIES_DisableClock
                0x00000000      0x120 ..\obj\tm_stm32f4_timer_properties.o
 .debug_info    0x00000000      0x769 ..\obj\tm_stm32f4_timer_properties.o
 .debug_abbrev  0x00000000      0x15c ..\obj\tm_stm32f4_timer_properties.o
 .debug_loc     0x00000000      0x36a ..\obj\tm_stm32f4_timer_properties.o
 .debug_aranges
                0x00000000       0x38 ..\obj\tm_stm32f4_timer_properties.o
 .debug_ranges  0x00000000       0x28 ..\obj\tm_stm32f4_timer_properties.o
 .debug_line    0x00000000      0x2c1 ..\obj\tm_stm32f4_timer_properties.o
 .debug_str     0x00000000      0x511 ..\obj\tm_stm32f4_timer_properties.o
 .comment       0x00000000       0x6f ..\obj\tm_stm32f4_timer_properties.o
 .debug_frame   0x00000000       0x84 ..\obj\tm_stm32f4_timer_properties.o
 .ARM.attributes
                0x00000000       0x33 ..\obj\tm_stm32f4_timer_properties.o
 .text          0x00000000        0x0 ..\obj\stm32f4xx_tim.o
 .data          0x00000000        0x0 ..\obj\stm32f4xx_tim.o
 .bss           0x00000000        0x0 ..\obj\stm32f4xx_tim.o
 .text.TI1_Config
                0x00000000       0x34 ..\obj\stm32f4xx_tim.o
 .text.TI2_Config
                0x00000000       0x3c ..\obj\stm32f4xx_tim.o
 .text.TIM_DeInit
                0x00000000      0x198 ..\obj\stm32f4xx_tim.o
 .text.TIM_TimeBaseStructInit
                0x00000000       0x14 ..\obj\stm32f4xx_tim.o
 .text.TIM_PrescalerConfig
                0x00000000        0x8 ..\obj\stm32f4xx_tim.o
 .text.TIM_CounterModeConfig
                0x00000000       0x10 ..\obj\stm32f4xx_tim.o
 .text.TIM_SetCounter
                0x00000000        0x4 ..\obj\stm32f4xx_tim.o
 .text.TIM_SetAutoreload
                0x00000000        0x4 ..\obj\stm32f4xx_tim.o
 .text.TIM_GetCounter
                0x00000000        0x4 ..\obj\stm32f4xx_tim.o
 .text.TIM_GetPrescaler
                0x00000000        0x8 ..\obj\stm32f4xx_tim.o
 .text.TIM_UpdateDisableConfig
                0x00000000       0x1c ..\obj\stm32f4xx_tim.o
 .text.TIM_UpdateRequestConfig
                0x00000000       0x1c ..\obj\stm32f4xx_tim.o
 .text.TIM_ARRPreloadConfig
                0x00000000       0x1c ..\obj\stm32f4xx_tim.o
 .text.TIM_SelectOnePulseMode
                0x00000000       0x18 ..\obj\stm32f4xx_tim.o
 .text.TIM_SetClockDivision
                0x00000000       0x18 ..\obj\stm32f4xx_tim.o
 .text.TIM_OC1Init
                0x00000000       0x74 ..\obj\stm32f4xx_tim.o
 .text.TIM_OC2Init
                0x00000000       0x88 ..\obj\stm32f4xx_tim.o
 .text.TIM_OC3Init
                0x00000000       0x84 ..\obj\stm32f4xx_tim.o
 .text.TIM_OC4Init
                0x00000000       0x68 ..\obj\stm32f4xx_tim.o
 .text.TIM_OCStructInit
                0x00000000       0x14 ..\obj\stm32f4xx_tim.o
 .text.TIM_SelectOCxM
                0x00000000       0x54 ..\obj\stm32f4xx_tim.o
 .text.TIM_SetCompare1
                0x00000000        0x4 ..\obj\stm32f4xx_tim.o
 .text.TIM_SetCompare2
                0x00000000        0x4 ..\obj\stm32f4xx_tim.o
 .text.TIM_SetCompare3
                0x00000000        0x4 ..\obj\stm32f4xx_tim.o
 .text.TIM_SetCompare4
                0x00000000        0x4 ..\obj\stm32f4xx_tim.o
 .text.TIM_ForcedOC1Config
                0x00000000       0x10 ..\obj\stm32f4xx_tim.o
 .text.TIM_ForcedOC2Config
                0x00000000       0x14 ..\obj\stm32f4xx_tim.o
 .text.TIM_ForcedOC3Config
                0x00000000       0x10 ..\obj\stm32f4xx_tim.o
 .text.TIM_ForcedOC4Config
                0x00000000       0x14 ..\obj\stm32f4xx_tim.o
 .text.TIM_OC1PreloadConfig
                0x00000000       0x10 ..\obj\stm32f4xx_tim.o
 .text.TIM_OC2PreloadConfig
                0x00000000       0x14 ..\obj\stm32f4xx_tim.o
 .text.TIM_OC3PreloadConfig
                0x00000000       0x10 ..\obj\stm32f4xx_tim.o
 .text.TIM_OC4PreloadConfig
                0x00000000       0x14 ..\obj\stm32f4xx_tim.o
 .text.TIM_OC1FastConfig
                0x00000000       0x10 ..\obj\stm32f4xx_tim.o
 .text.TIM_OC2FastConfig
                0x00000000       0x14 ..\obj\stm32f4xx_tim.o
 .text.TIM_OC3FastConfig
                0x00000000       0x10 ..\obj\stm32f4xx_tim.o
 .text.TIM_OC4FastConfig
                0x00000000       0x14 ..\obj\stm32f4xx_tim.o
 .text.TIM_ClearOC1Ref
                0x00000000       0x10 ..\obj\stm32f4xx_tim.o
 .text.TIM_ClearOC2Ref
                0x00000000       0x10 ..\obj\stm32f4xx_tim.o
 .text.TIM_ClearOC3Ref
                0x00000000       0x10 ..\obj\stm32f4xx_tim.o
 .text.TIM_ClearOC4Ref
                0x00000000       0x10 ..\obj\stm32f4xx_tim.o
 .text.TIM_OC1PolarityConfig
                0x00000000       0x10 ..\obj\stm32f4xx_tim.o
 .text.TIM_OC1NPolarityConfig
                0x00000000       0x10 ..\obj\stm32f4xx_tim.o
 .text.TIM_OC2PolarityConfig
                0x00000000       0x14 ..\obj\stm32f4xx_tim.o
 .text.TIM_OC2NPolarityConfig
                0x00000000       0x14 ..\obj\stm32f4xx_tim.o
 .text.TIM_OC3PolarityConfig
                0x00000000       0x14 ..\obj\stm32f4xx_tim.o
 .text.TIM_OC3NPolarityConfig
                0x00000000       0x14 ..\obj\stm32f4xx_tim.o
 .text.TIM_OC4PolarityConfig
                0x00000000       0x14 ..\obj\stm32f4xx_tim.o
 .text.TIM_CCxCmd
                0x00000000       0x20 ..\obj\stm32f4xx_tim.o
 .text.TIM_CCxNCmd
                0x00000000       0x20 ..\obj\stm32f4xx_tim.o
 .text.TIM_ICStructInit
                0x00000000       0x10 ..\obj\stm32f4xx_tim.o
 .text.TIM_GetCapture1
                0x00000000        0x4 ..\obj\stm32f4xx_tim.o
 .text.TIM_GetCapture2
                0x00000000        0x4 ..\obj\stm32f4xx_tim.o
 .text.TIM_GetCapture3
                0x00000000        0x4 ..\obj\stm32f4xx_tim.o
 .text.TIM_GetCapture4
                0x00000000        0x4 ..\obj\stm32f4xx_tim.o
 .text.TIM_SetIC1Prescaler
                0x00000000       0x18 ..\obj\stm32f4xx_tim.o
 .text.TIM_SetIC2Prescaler
                0x00000000       0x1c ..\obj\stm32f4xx_tim.o
 .text.TIM_PWMIConfig
                0x00000000       0x68 ..\obj\stm32f4xx_tim.o
 .text.TIM_SetIC3Prescaler
                0x00000000       0x18 ..\obj\stm32f4xx_tim.o
 .text.TIM_SetIC4Prescaler
                0x00000000       0x1c ..\obj\stm32f4xx_tim.o
 .text.TIM_ICInit
                0x00000000       0xc4 ..\obj\stm32f4xx_tim.o
 .text.TIM_BDTRConfig
                0x00000000       0x24 ..\obj\stm32f4xx_tim.o
 .text.TIM_BDTRStructInit
                0x00000000       0x14 ..\obj\stm32f4xx_tim.o
 .text.TIM_CtrlPWMOutputs
                0x00000000       0x24 ..\obj\stm32f4xx_tim.o
 .text.TIM_SelectCOM
                0x00000000       0x1c ..\obj\stm32f4xx_tim.o
 .text.TIM_CCPreloadControl
                0x00000000       0x1c ..\obj\stm32f4xx_tim.o
 .text.TIM_GenerateEvent
                0x00000000        0x4 ..\obj\stm32f4xx_tim.o
 .text.TIM_GetFlagStatus
                0x00000000        0xc ..\obj\stm32f4xx_tim.o
 .text.TIM_ClearFlag
                0x00000000        0x8 ..\obj\stm32f4xx_tim.o
 .text.TIM_DMAConfig
                0x00000000        0x8 ..\obj\stm32f4xx_tim.o
 .text.TIM_DMACmd
                0x00000000       0x18 ..\obj\stm32f4xx_tim.o
 .text.TIM_SelectCCDMA
                0x00000000       0x1c ..\obj\stm32f4xx_tim.o
 .text.TIM_InternalClockConfig
                0x00000000       0x10 ..\obj\stm32f4xx_tim.o
 .text.TIM_ITRxExternalClockConfig
                0x00000000       0x1c ..\obj\stm32f4xx_tim.o
 .text.TIM_TIxExternalClockConfig
                0x00000000       0x34 ..\obj\stm32f4xx_tim.o
 .text.TIM_SelectInputTrigger
                0x00000000       0x10 ..\obj\stm32f4xx_tim.o
 .text.TIM_SelectOutputTrigger
                0x00000000       0x18 ..\obj\stm32f4xx_tim.o
 .text.TIM_SelectSlaveMode
                0x00000000       0x18 ..\obj\stm32f4xx_tim.o
 .text.TIM_SelectMasterSlaveMode
                0x00000000       0x18 ..\obj\stm32f4xx_tim.o
 .text.TIM_ETRConfig
                0x00000000       0x18 ..\obj\stm32f4xx_tim.o
 .text.TIM_ETRClockMode1Config
                0x00000000       0x1c ..\obj\stm32f4xx_tim.o
 .text.TIM_ETRClockMode2Config
                0x00000000       0x14 ..\obj\stm32f4xx_tim.o
 .text.TIM_EncoderInterfaceConfig
                0x00000000       0x3c ..\obj\stm32f4xx_tim.o
 .text.TIM_SelectHallSensor
                0x00000000       0x1c ..\obj\stm32f4xx_tim.o
 .text.TIM_RemapConfig
                0x00000000        0x8 ..\obj\stm32f4xx_tim.o
 .text          0x00000000        0x0 ..\obj\usb_hcd_int.o
 .data          0x00000000        0x0 ..\obj\usb_hcd_int.o
 .bss           0x00000000        0x0 ..\obj\usb_hcd_int.o
 .data          0x00000000        0x0 c:/program files (x86)/gnu tools arm embedded/5.4 2016q3/bin/../lib/gcc/arm-none-eabi/5.4.1/armv7e-m\libgcc.a(_arm_addsubdf3.o)
 .bss           0x00000000        0x0 c:/program files (x86)/gnu tools arm embedded/5.4 2016q3/bin/../lib/gcc/arm-none-eabi/5.4.1/armv7e-m\libgcc.a(_arm_addsubdf3.o)
 .data          0x00000000        0x0 c:/program files (x86)/gnu tools arm embedded/5.4 2016q3/bin/../lib/gcc/arm-none-eabi/5.4.1/armv7e-m\libgcc.a(_arm_muldivdf3.o)
 .bss           0x00000000        0x0 c:/program files (x86)/gnu tools arm embedded/5.4 2016q3/bin/../lib/gcc/arm-none-eabi/5.4.1/armv7e-m\libgcc.a(_arm_muldivdf3.o)
 .data          0x00000000        0x0 c:/program files (x86)/gnu tools arm embedded/5.4 2016q3/bin/../lib/gcc/arm-none-eabi/5.4.1/armv7e-m\libgcc.a(_arm_cmpdf2.o)
 .bss           0x00000000        0x0 c:/program files (x86)/gnu tools arm embedded/5.4 2016q3/bin/../lib/gcc/arm-none-eabi/5.4.1/armv7e-m\libgcc.a(_arm_cmpdf2.o)
 .text          0x00000000       0x40 c:/program files (x86)/gnu tools arm embedded/5.4 2016q3/bin/../lib/gcc/arm-none-eabi/5.4.1/armv7e-m\libgcc.a(_arm_fixunsdfsi.o)
 .data          0x00000000        0x0 c:/program files (x86)/gnu tools arm embedded/5.4 2016q3/bin/../lib/gcc/arm-none-eabi/5.4.1/armv7e-m\libgcc.a(_arm_fixunsdfsi.o)
 .bss           0x00000000        0x0 c:/program files (x86)/gnu tools arm embedded/5.4 2016q3/bin/../lib/gcc/arm-none-eabi/5.4.1/armv7e-m\libgcc.a(_arm_fixunsdfsi.o)
 .ARM.attributes
                0x00000000       0x1e c:/program files (x86)/gnu tools arm embedded/5.4 2016q3/bin/../lib/gcc/arm-none-eabi/5.4.1/armv7e-m\libgcc.a(_arm_fixunsdfsi.o)
 .text          0x00000000        0x0 c:/program files (x86)/gnu tools arm embedded/5.4 2016q3/bin/../lib/gcc/arm-none-eabi/5.4.1/../../../../arm-none-eabi/lib/armv7e-m\libg.a(lib_a-malloc.o)
 .data          0x00000000        0x0 c:/program files (x86)/gnu tools arm embedded/5.4 2016q3/bin/../lib/gcc/arm-none-eabi/5.4.1/../../../../arm-none-eabi/lib/armv7e-m\libg.a(lib_a-malloc.o)
 .bss           0x00000000        0x0 c:/program files (x86)/gnu tools arm embedded/5.4 2016q3/bin/../lib/gcc/arm-none-eabi/5.4.1/../../../../arm-none-eabi/lib/armv7e-m\libg.a(lib_a-malloc.o)
 .text.malloc   0x00000000       0x10 c:/program files (x86)/gnu tools arm embedded/5.4 2016q3/bin/../lib/gcc/arm-none-eabi/5.4.1/../../../../arm-none-eabi/lib/armv7e-m\libg.a(lib_a-malloc.o)
 .text.free     0x00000000       0x10 c:/program files (x86)/gnu tools arm embedded/5.4 2016q3/bin/../lib/gcc/arm-none-eabi/5.4.1/../../../../arm-none-eabi/lib/armv7e-m\libg.a(lib_a-malloc.o)
 .debug_frame   0x00000000       0x30 c:/program files (x86)/gnu tools arm embedded/5.4 2016q3/bin/../lib/gcc/arm-none-eabi/5.4.1/../../../../arm-none-eabi/lib/armv7e-m\libg.a(lib_a-malloc.o)
 .ARM.attributes
                0x00000000       0x2e c:/program files (x86)/gnu tools arm embedded/5.4 2016q3/bin/../lib/gcc/arm-none-eabi/5.4.1/../../../../arm-none-eabi/lib/armv7e-m\libg.a(lib_a-malloc.o)
 .text          0x00000000        0x0 c:/program files (x86)/gnu tools arm embedded/5.4 2016q3/bin/../lib/gcc/arm-none-eabi/5.4.1/../../../../arm-none-eabi/lib/armv7e-m\libg.a(lib_a-mallocr.o)
 .data          0x00000000        0x0 c:/program files (x86)/gnu tools arm embedded/5.4 2016q3/bin/../lib/gcc/arm-none-eabi/5.4.1/../../../../arm-none-eabi/lib/armv7e-m\libg.a(lib_a-mallocr.o)
 .bss           0x00000000        0x0 c:/program files (x86)/gnu tools arm embedded/5.4 2016q3/bin/../lib/gcc/arm-none-eabi/5.4.1/../../../../arm-none-eabi/lib/armv7e-m\libg.a(lib_a-mallocr.o)
 .data          0x00000000        0x0 c:/program files (x86)/gnu tools arm embedded/5.4 2016q3/bin/../lib/gcc/arm-none-eabi/5.4.1/../../../../arm-none-eabi/lib/armv7e-m\libg.a(lib_a-memcpy.o)
 .bss           0x00000000        0x0 c:/program files (x86)/gnu tools arm embedded/5.4 2016q3/bin/../lib/gcc/arm-none-eabi/5.4.1/../../../../arm-none-eabi/lib/armv7e-m\libg.a(lib_a-memcpy.o)
 .text          0x00000000        0x0 c:/program files (x86)/gnu tools arm embedded/5.4 2016q3/bin/../lib/gcc/arm-none-eabi/5.4.1/../../../../arm-none-eabi/lib/armv7e-m\libg.a(lib_a-memmove.o)
 .data          0x00000000        0x0 c:/program files (x86)/gnu tools arm embedded/5.4 2016q3/bin/../lib/gcc/arm-none-eabi/5.4.1/../../../../arm-none-eabi/lib/armv7e-m\libg.a(lib_a-memmove.o)
 .bss           0x00000000        0x0 c:/program files (x86)/gnu tools arm embedded/5.4 2016q3/bin/../lib/gcc/arm-none-eabi/5.4.1/../../../../arm-none-eabi/lib/armv7e-m\libg.a(lib_a-memmove.o)
 .text          0x00000000        0x0 c:/program files (x86)/gnu tools arm embedded/5.4 2016q3/bin/../lib/gcc/arm-none-eabi/5.4.1/../../../../arm-none-eabi/lib/armv7e-m\libg.a(lib_a-mlock.o)
 .data          0x00000000        0x0 c:/program files (x86)/gnu tools arm embedded/5.4 2016q3/bin/../lib/gcc/arm-none-eabi/5.4.1/../../../../arm-none-eabi/lib/armv7e-m\libg.a(lib_a-mlock.o)
 .bss           0x00000000        0x0 c:/program files (x86)/gnu tools arm embedded/5.4 2016q3/bin/../lib/gcc/arm-none-eabi/5.4.1/../../../../arm-none-eabi/lib/armv7e-m\libg.a(lib_a-mlock.o)
 .text          0x00000000        0x0 c:/program files (x86)/gnu tools arm embedded/5.4 2016q3/bin/../lib/gcc/arm-none-eabi/5.4.1/../../../../arm-none-eabi/lib/armv7e-m\libg.a(lib_a-realloc.o)
 .data          0x00000000        0x0 c:/program files (x86)/gnu tools arm embedded/5.4 2016q3/bin/../lib/gcc/arm-none-eabi/5.4.1/../../../../arm-none-eabi/lib/armv7e-m\libg.a(lib_a-realloc.o)
 .bss           0x00000000        0x0 c:/program files (x86)/gnu tools arm embedded/5.4 2016q3/bin/../lib/gcc/arm-none-eabi/5.4.1/../../../../arm-none-eabi/lib/armv7e-m\libg.a(lib_a-realloc.o)
 .text          0x00000000        0x0 c:/program files (x86)/gnu tools arm embedded/5.4 2016q3/bin/../lib/gcc/arm-none-eabi/5.4.1/../../../../arm-none-eabi/lib/armv7e-m\libg.a(lib_a-reallocr.o)
 .data          0x00000000        0x0 c:/program files (x86)/gnu tools arm embedded/5.4 2016q3/bin/../lib/gcc/arm-none-eabi/5.4.1/../../../../arm-none-eabi/lib/armv7e-m\libg.a(lib_a-reallocr.o)
 .bss           0x00000000        0x0 c:/program files (x86)/gnu tools arm embedded/5.4 2016q3/bin/../lib/gcc/arm-none-eabi/5.4.1/../../../../arm-none-eabi/lib/armv7e-m\libg.a(lib_a-reallocr.o)
 .text          0x00000000        0x0 c:/program files (x86)/gnu tools arm embedded/5.4 2016q3/bin/../lib/gcc/arm-none-eabi/5.4.1/../../../../arm-none-eabi/lib/armv7e-m\libg.a(lib_a-sbrkr.o)
 .data          0x00000000        0x0 c:/program files (x86)/gnu tools arm embedded/5.4 2016q3/bin/../lib/gcc/arm-none-eabi/5.4.1/../../../../arm-none-eabi/lib/armv7e-m\libg.a(lib_a-sbrkr.o)
 .bss           0x00000000        0x0 c:/program files (x86)/gnu tools arm embedded/5.4 2016q3/bin/../lib/gcc/arm-none-eabi/5.4.1/../../../../arm-none-eabi/lib/armv7e-m\libg.a(lib_a-sbrkr.o)
 .text          0x00000000        0x0 c:/program files (x86)/gnu tools arm embedded/5.4 2016q3/bin/../lib/gcc/arm-none-eabi/5.4.1/../../../../arm-none-eabi/lib/armv7e-m\libg.a(lib_a-sprintf.o)
 .data          0x00000000        0x0 c:/program files (x86)/gnu tools arm embedded/5.4 2016q3/bin/../lib/gcc/arm-none-eabi/5.4.1/../../../../arm-none-eabi/lib/armv7e-m\libg.a(lib_a-sprintf.o)
 .bss           0x00000000        0x0 c:/program files (x86)/gnu tools arm embedded/5.4 2016q3/bin/../lib/gcc/arm-none-eabi/5.4.1/../../../../arm-none-eabi/lib/armv7e-m\libg.a(lib_a-sprintf.o)
 .text._sprintf_r
                0x00000000       0x44 c:/program files (x86)/gnu tools arm embedded/5.4 2016q3/bin/../lib/gcc/arm-none-eabi/5.4.1/../../../../arm-none-eabi/lib/armv7e-m\libg.a(lib_a-sprintf.o)
 .text          0x00000000        0x0 c:/program files (x86)/gnu tools arm embedded/5.4 2016q3/bin/../lib/gcc/arm-none-eabi/5.4.1/../../../../arm-none-eabi/lib/armv7e-m\libg.a(lib_a-strcpy.o)
 .data          0x00000000        0x0 c:/program files (x86)/gnu tools arm embedded/5.4 2016q3/bin/../lib/gcc/arm-none-eabi/5.4.1/../../../../arm-none-eabi/lib/armv7e-m\libg.a(lib_a-strcpy.o)
 .bss           0x00000000        0x0 c:/program files (x86)/gnu tools arm embedded/5.4 2016q3/bin/../lib/gcc/arm-none-eabi/5.4.1/../../../../arm-none-eabi/lib/armv7e-m\libg.a(lib_a-strcpy.o)
 .data          0x00000000        0x0 c:/program files (x86)/gnu tools arm embedded/5.4 2016q3/bin/../lib/gcc/arm-none-eabi/5.4.1/../../../../arm-none-eabi/lib/armv7e-m\libg.a(lib_a-strlen.o)
 .bss           0x00000000        0x0 c:/program files (x86)/gnu tools arm embedded/5.4 2016q3/bin/../lib/gcc/arm-none-eabi/5.4.1/../../../../arm-none-eabi/lib/armv7e-m\libg.a(lib_a-strlen.o)
 .text          0x00000000        0x0 c:/program files (x86)/gnu tools arm embedded/5.4 2016q3/bin/../lib/gcc/arm-none-eabi/5.4.1/../../../../arm-none-eabi/lib/armv7e-m\libg.a(lib_a-svfprintf.o)
 .data          0x00000000        0x0 c:/program files (x86)/gnu tools arm embedded/5.4 2016q3/bin/../lib/gcc/arm-none-eabi/5.4.1/../../../../arm-none-eabi/lib/armv7e-m\libg.a(lib_a-svfprintf.o)
 .bss           0x00000000        0x0 c:/program files (x86)/gnu tools arm embedded/5.4 2016q3/bin/../lib/gcc/arm-none-eabi/5.4.1/../../../../arm-none-eabi/lib/armv7e-m\libg.a(lib_a-svfprintf.o)
 .text          0x00000000        0x0 c:/program files (x86)/gnu tools arm embedded/5.4 2016q3/bin/../lib/gcc/arm-none-eabi/5.4.1/../../../../arm-none-eabi/lib/armv7e-m\libg.a(lib_a-dtoa.o)
 .data          0x00000000        0x0 c:/program files (x86)/gnu tools arm embedded/5.4 2016q3/bin/../lib/gcc/arm-none-eabi/5.4.1/../../../../arm-none-eabi/lib/armv7e-m\libg.a(lib_a-dtoa.o)
 .bss           0x00000000        0x0 c:/program files (x86)/gnu tools arm embedded/5.4 2016q3/bin/../lib/gcc/arm-none-eabi/5.4.1/../../../../arm-none-eabi/lib/armv7e-m\libg.a(lib_a-dtoa.o)
 .text          0x00000000        0x0 c:/program files (x86)/gnu tools arm embedded/5.4 2016q3/bin/../lib/gcc/arm-none-eabi/5.4.1/../../../../arm-none-eabi/lib/armv7e-m\libg.a(lib_a-freer.o)
 .data          0x00000000        0x0 c:/program files (x86)/gnu tools arm embedded/5.4 2016q3/bin/../lib/gcc/arm-none-eabi/5.4.1/../../../../arm-none-eabi/lib/armv7e-m\libg.a(lib_a-freer.o)
 .bss           0x00000000        0x0 c:/program files (x86)/gnu tools arm embedded/5.4 2016q3/bin/../lib/gcc/arm-none-eabi/5.4.1/../../../../arm-none-eabi/lib/armv7e-m\libg.a(lib_a-freer.o)
 .text          0x00000000        0x0 c:/program files (x86)/gnu tools arm embedded/5.4 2016q3/bin/../lib/gcc/arm-none-eabi/5.4.1/../../../../arm-none-eabi/lib/armv7e-m\libg.a(lib_a-impure.o)
 .data          0x00000000        0x0 c:/program files (x86)/gnu tools arm embedded/5.4 2016q3/bin/../lib/gcc/arm-none-eabi/5.4.1/../../../../arm-none-eabi/lib/armv7e-m\libg.a(lib_a-impure.o)
 .bss           0x00000000        0x0 c:/program files (x86)/gnu tools arm embedded/5.4 2016q3/bin/../lib/gcc/arm-none-eabi/5.4.1/../../../../arm-none-eabi/lib/armv7e-m\libg.a(lib_a-impure.o)
 .rodata._global_impure_ptr
                0x00000000        0x4 c:/program files (x86)/gnu tools arm embedded/5.4 2016q3/bin/../lib/gcc/arm-none-eabi/5.4.1/../../../../arm-none-eabi/lib/armv7e-m\libg.a(lib_a-impure.o)
 .text          0x00000000        0x0 c:/program files (x86)/gnu tools arm embedded/5.4 2016q3/bin/../lib/gcc/arm-none-eabi/5.4.1/../../../../arm-none-eabi/lib/armv7e-m\libg.a(lib_a-localeconv.o)
 .data          0x00000000        0x0 c:/program files (x86)/gnu tools arm embedded/5.4 2016q3/bin/../lib/gcc/arm-none-eabi/5.4.1/../../../../arm-none-eabi/lib/armv7e-m\libg.a(lib_a-localeconv.o)
 .bss           0x00000000        0x0 c:/program files (x86)/gnu tools arm embedded/5.4 2016q3/bin/../lib/gcc/arm-none-eabi/5.4.1/../../../../arm-none-eabi/lib/armv7e-m\libg.a(lib_a-localeconv.o)
 .text.__localeconv_l
                0x00000000        0x4 c:/program files (x86)/gnu tools arm embedded/5.4 2016q3/bin/../lib/gcc/arm-none-eabi/5.4.1/../../../../arm-none-eabi/lib/armv7e-m\libg.a(lib_a-localeconv.o)
 .text.localeconv
                0x00000000       0x1c c:/program files (x86)/gnu tools arm embedded/5.4 2016q3/bin/../lib/gcc/arm-none-eabi/5.4.1/../../../../arm-none-eabi/lib/armv7e-m\libg.a(lib_a-localeconv.o)
 .data          0x00000000        0x0 c:/program files (x86)/gnu tools arm embedded/5.4 2016q3/bin/../lib/gcc/arm-none-eabi/5.4.1/../../../../arm-none-eabi/lib/armv7e-m\libg.a(lib_a-memchr.o)
 .bss           0x00000000        0x0 c:/program files (x86)/gnu tools arm embedded/5.4 2016q3/bin/../lib/gcc/arm-none-eabi/5.4.1/../../../../arm-none-eabi/lib/armv7e-m\libg.a(lib_a-memchr.o)
 .text          0x00000000        0x0 c:/program files (x86)/gnu tools arm embedded/5.4 2016q3/bin/../lib/gcc/arm-none-eabi/5.4.1/../../../../arm-none-eabi/lib/armv7e-m\libg.a(lib_a-mprec.o)
 .data          0x00000000        0x0 c:/program files (x86)/gnu tools arm embedded/5.4 2016q3/bin/../lib/gcc/arm-none-eabi/5.4.1/../../../../arm-none-eabi/lib/armv7e-m\libg.a(lib_a-mprec.o)
 .bss           0x00000000        0x0 c:/program files (x86)/gnu tools arm embedded/5.4 2016q3/bin/../lib/gcc/arm-none-eabi/5.4.1/../../../../arm-none-eabi/lib/armv7e-m\libg.a(lib_a-mprec.o)
 .text.__s2b    0x00000000       0x98 c:/program files (x86)/gnu tools arm embedded/5.4 2016q3/bin/../lib/gcc/arm-none-eabi/5.4.1/../../../../arm-none-eabi/lib/armv7e-m\libg.a(lib_a-mprec.o)
 .text.__ulp    0x00000000       0x44 c:/program files (x86)/gnu tools arm embedded/5.4 2016q3/bin/../lib/gcc/arm-none-eabi/5.4.1/../../../../arm-none-eabi/lib/armv7e-m\libg.a(lib_a-mprec.o)
 .text.__b2d    0x00000000       0xd4 c:/program files (x86)/gnu tools arm embedded/5.4 2016q3/bin/../lib/gcc/arm-none-eabi/5.4.1/../../../../arm-none-eabi/lib/armv7e-m\libg.a(lib_a-mprec.o)
 .text.__ratio  0x00000000       0x54 c:/program files (x86)/gnu tools arm embedded/5.4 2016q3/bin/../lib/gcc/arm-none-eabi/5.4.1/../../../../arm-none-eabi/lib/armv7e-m\libg.a(lib_a-mprec.o)
 .text._mprec_log10
                0x00000000       0x34 c:/program files (x86)/gnu tools arm embedded/5.4 2016q3/bin/../lib/gcc/arm-none-eabi/5.4.1/../../../../arm-none-eabi/lib/armv7e-m\libg.a(lib_a-mprec.o)
 .text.__copybits
                0x00000000       0x48 c:/program files (x86)/gnu tools arm embedded/5.4 2016q3/bin/../lib/gcc/arm-none-eabi/5.4.1/../../../../arm-none-eabi/lib/armv7e-m\libg.a(lib_a-mprec.o)
 .text.__any_on
                0x00000000       0x5c c:/program files (x86)/gnu tools arm embedded/5.4 2016q3/bin/../lib/gcc/arm-none-eabi/5.4.1/../../../../arm-none-eabi/lib/armv7e-m\libg.a(lib_a-mprec.o)
 .rodata.__mprec_tinytens
                0x00000000       0x28 c:/program files (x86)/gnu tools arm embedded/5.4 2016q3/bin/../lib/gcc/arm-none-eabi/5.4.1/../../../../arm-none-eabi/lib/armv7e-m\libg.a(lib_a-mprec.o)
 .text          0x00000000        0x0 c:/program files (x86)/gnu tools arm embedded/5.4 2016q3/bin/../lib/gcc/arm-none-eabi/5.4.1/../../../../arm-none-eabi/lib/armv7e-m\libg.a(lib_a-reent.o)
 .data          0x00000000        0x0 c:/program files (x86)/gnu tools arm embedded/5.4 2016q3/bin/../lib/gcc/arm-none-eabi/5.4.1/../../../../arm-none-eabi/lib/armv7e-m\libg.a(lib_a-reent.o)
 .bss           0x00000000        0x0 c:/program files (x86)/gnu tools arm embedded/5.4 2016q3/bin/../lib/gcc/arm-none-eabi/5.4.1/../../../../arm-none-eabi/lib/armv7e-m\libg.a(lib_a-reent.o)
 .text.cleanup_glue
                0x00000000       0x1c c:/program files (x86)/gnu tools arm embedded/5.4 2016q3/bin/../lib/gcc/arm-none-eabi/5.4.1/../../../../arm-none-eabi/lib/armv7e-m\libg.a(lib_a-reent.o)
 .text._reclaim_reent
                0x00000000       0x88 c:/program files (x86)/gnu tools arm embedded/5.4 2016q3/bin/../lib/gcc/arm-none-eabi/5.4.1/../../../../arm-none-eabi/lib/armv7e-m\libg.a(lib_a-reent.o)
 .text          0x00000000        0x0 c:/program files (x86)/gnu tools arm embedded/5.4 2016q3/bin/../lib/gcc/arm-none-eabi/5.4.1/../../../../arm-none-eabi/lib/armv7e-m\libg.a(lib_a-svfiprintf.o)
 .data          0x00000000        0x0 c:/program files (x86)/gnu tools arm embedded/5.4 2016q3/bin/../lib/gcc/arm-none-eabi/5.4.1/../../../../arm-none-eabi/lib/armv7e-m\libg.a(lib_a-svfiprintf.o)
 .bss           0x00000000        0x0 c:/program files (x86)/gnu tools arm embedded/5.4 2016q3/bin/../lib/gcc/arm-none-eabi/5.4.1/../../../../arm-none-eabi/lib/armv7e-m\libg.a(lib_a-svfiprintf.o)
 .text._svfiprintf_r
                0x00000000      0xc5c c:/program files (x86)/gnu tools arm embedded/5.4 2016q3/bin/../lib/gcc/arm-none-eabi/5.4.1/../../../../arm-none-eabi/lib/armv7e-m\libg.a(lib_a-svfiprintf.o)
 .rodata.blanks.7235
                0x00000000       0x10 c:/program files (x86)/gnu tools arm embedded/5.4 2016q3/bin/../lib/gcc/arm-none-eabi/5.4.1/../../../../arm-none-eabi/lib/armv7e-m\libg.a(lib_a-svfiprintf.o)
 .rodata.str1.4
                0x00000000       0x2f c:/program files (x86)/gnu tools arm embedded/5.4 2016q3/bin/../lib/gcc/arm-none-eabi/5.4.1/../../../../arm-none-eabi/lib/armv7e-m\libg.a(lib_a-svfiprintf.o)
 .rodata.zeroes.7236
                0x00000000       0x10 c:/program files (x86)/gnu tools arm embedded/5.4 2016q3/bin/../lib/gcc/arm-none-eabi/5.4.1/../../../../arm-none-eabi/lib/armv7e-m\libg.a(lib_a-svfiprintf.o)
 .text          0x00000000        0x0 c:/program files (x86)/gnu tools arm embedded/5.4 2016q3/bin/../lib/gcc/arm-none-eabi/5.4.1/../../../../arm-none-eabi/lib/armv7e-m\libg.a(lib_a-callocr.o)
 .data          0x00000000        0x0 c:/program files (x86)/gnu tools arm embedded/5.4 2016q3/bin/../lib/gcc/arm-none-eabi/5.4.1/../../../../arm-none-eabi/lib/armv7e-m\libg.a(lib_a-callocr.o)
 .bss           0x00000000        0x0 c:/program files (x86)/gnu tools arm embedded/5.4 2016q3/bin/../lib/gcc/arm-none-eabi/5.4.1/../../../../arm-none-eabi/lib/armv7e-m\libg.a(lib_a-callocr.o)
 .text          0x00000000        0x0 c:/program files (x86)/gnu tools arm embedded/5.4 2016q3/bin/../lib/gcc/arm-none-eabi/5.4.1/../../../../arm-none-eabi/lib/armv7e-m\libg.a(lib_a-locale.o)
 .data          0x00000000        0x0 c:/program files (x86)/gnu tools arm embedded/5.4 2016q3/bin/../lib/gcc/arm-none-eabi/5.4.1/../../../../arm-none-eabi/lib/armv7e-m\libg.a(lib_a-locale.o)
 .bss           0x00000000        0x0 c:/program files (x86)/gnu tools arm embedded/5.4 2016q3/bin/../lib/gcc/arm-none-eabi/5.4.1/../../../../arm-none-eabi/lib/armv7e-m\libg.a(lib_a-locale.o)
 .text.__get_current_locale
                0x00000000       0x18 c:/program files (x86)/gnu tools arm embedded/5.4 2016q3/bin/../lib/gcc/arm-none-eabi/5.4.1/../../../../arm-none-eabi/lib/armv7e-m\libg.a(lib_a-locale.o)
 .text._setlocale_r
                0x00000000       0x40 c:/program files (x86)/gnu tools arm embedded/5.4 2016q3/bin/../lib/gcc/arm-none-eabi/5.4.1/../../../../arm-none-eabi/lib/armv7e-m\libg.a(lib_a-locale.o)
 .text.__locale_mb_cur_max
                0x00000000       0x1c c:/program files (x86)/gnu tools arm embedded/5.4 2016q3/bin/../lib/gcc/arm-none-eabi/5.4.1/../../../../arm-none-eabi/lib/armv7e-m\libg.a(lib_a-locale.o)
 .text.__locale_ctype_ptr_l
                0x00000000        0x8 c:/program files (x86)/gnu tools arm embedded/5.4 2016q3/bin/../lib/gcc/arm-none-eabi/5.4.1/../../../../arm-none-eabi/lib/armv7e-m\libg.a(lib_a-locale.o)
 .text.__locale_ctype_ptr
                0x00000000       0x14 c:/program files (x86)/gnu tools arm embedded/5.4 2016q3/bin/../lib/gcc/arm-none-eabi/5.4.1/../../../../arm-none-eabi/lib/armv7e-m\libg.a(lib_a-locale.o)
 .text.setlocale
                0x00000000       0x10 c:/program files (x86)/gnu tools arm embedded/5.4 2016q3/bin/../lib/gcc/arm-none-eabi/5.4.1/../../../../arm-none-eabi/lib/armv7e-m\libg.a(lib_a-locale.o)
 .bss._PathLocale
                0x00000000        0x4 c:/program files (x86)/gnu tools arm embedded/5.4 2016q3/bin/../lib/gcc/arm-none-eabi/5.4.1/../../../../arm-none-eabi/lib/armv7e-m\libg.a(lib_a-locale.o)
 .text          0x00000000        0x0 c:/program files (x86)/gnu tools arm embedded/5.4 2016q3/bin/../lib/gcc/arm-none-eabi/5.4.1/../../../../arm-none-eabi/lib/armv7e-m\libg.a(lib_a-mbtowc_r.o)
 .data          0x00000000        0x0 c:/program files (x86)/gnu tools arm embedded/5.4 2016q3/bin/../lib/gcc/arm-none-eabi/5.4.1/../../../../arm-none-eabi/lib/armv7e-m\libg.a(lib_a-mbtowc_r.o)
 .bss           0x00000000        0x0 c:/program files (x86)/gnu tools arm embedded/5.4 2016q3/bin/../lib/gcc/arm-none-eabi/5.4.1/../../../../arm-none-eabi/lib/armv7e-m\libg.a(lib_a-mbtowc_r.o)
 .text._mbtowc_r
                0x00000000       0x24 c:/program files (x86)/gnu tools arm embedded/5.4 2016q3/bin/../lib/gcc/arm-none-eabi/5.4.1/../../../../arm-none-eabi/lib/armv7e-m\libg.a(lib_a-mbtowc_r.o)
 .text          0x00000000        0x0 c:/program files (x86)/gnu tools arm embedded/5.4 2016q3/bin/../lib/gcc/arm-none-eabi/5.4.1/../../../../arm-none-eabi/lib/armv7e-m\libg.a(lib_a-memset.o)
 .data          0x00000000        0x0 c:/program files (x86)/gnu tools arm embedded/5.4 2016q3/bin/../lib/gcc/arm-none-eabi/5.4.1/../../../../arm-none-eabi/lib/armv7e-m\libg.a(lib_a-memset.o)
 .bss           0x00000000        0x0 c:/program files (x86)/gnu tools arm embedded/5.4 2016q3/bin/../lib/gcc/arm-none-eabi/5.4.1/../../../../arm-none-eabi/lib/armv7e-m\libg.a(lib_a-memset.o)
 .text          0x00000000      0x2dc c:/program files (x86)/gnu tools arm embedded/5.4 2016q3/bin/../lib/gcc/arm-none-eabi/5.4.1/../../../../arm-none-eabi/lib/armv7e-m\libg.a(lib_a-strcmp.o)
 .data          0x00000000        0x0 c:/program files (x86)/gnu tools arm embedded/5.4 2016q3/bin/../lib/gcc/arm-none-eabi/5.4.1/../../../../arm-none-eabi/lib/armv7e-m\libg.a(lib_a-strcmp.o)
 .bss           0x00000000        0x0 c:/program files (x86)/gnu tools arm embedded/5.4 2016q3/bin/../lib/gcc/arm-none-eabi/5.4.1/../../../../arm-none-eabi/lib/armv7e-m\libg.a(lib_a-strcmp.o)
 .debug_frame   0x00000000       0x68 c:/program files (x86)/gnu tools arm embedded/5.4 2016q3/bin/../lib/gcc/arm-none-eabi/5.4.1/../../../../arm-none-eabi/lib/armv7e-m\libg.a(lib_a-strcmp.o)
 .ARM.attributes
                0x00000000       0x1c c:/program files (x86)/gnu tools arm embedded/5.4 2016q3/bin/../lib/gcc/arm-none-eabi/5.4.1/../../../../arm-none-eabi/lib/armv7e-m\libg.a(lib_a-strcmp.o)
 .text          0x00000000        0x0 c:/program files (x86)/gnu tools arm embedded/5.4 2016q3/bin/../lib/gcc/arm-none-eabi/5.4.1/../../../../arm-none-eabi/lib/armv7e-m\libg.a(lib_a-wctomb_r.o)
 .data          0x00000000        0x0 c:/program files (x86)/gnu tools arm embedded/5.4 2016q3/bin/../lib/gcc/arm-none-eabi/5.4.1/../../../../arm-none-eabi/lib/armv7e-m\libg.a(lib_a-wctomb_r.o)
 .bss           0x00000000        0x0 c:/program files (x86)/gnu tools arm embedded/5.4 2016q3/bin/../lib/gcc/arm-none-eabi/5.4.1/../../../../arm-none-eabi/lib/armv7e-m\libg.a(lib_a-wctomb_r.o)
 .text._wctomb_r
                0x00000000       0x24 c:/program files (x86)/gnu tools arm embedded/5.4 2016q3/bin/../lib/gcc/arm-none-eabi/5.4.1/../../../../arm-none-eabi/lib/armv7e-m\libg.a(lib_a-wctomb_r.o)
 .text          0x00000000        0x0 c:/program files (x86)/gnu tools arm embedded/5.4 2016q3/bin/../lib/gcc/arm-none-eabi/5.4.1/../../../../arm-none-eabi/lib/armv7e-m\libg.a(lib_a-ctype_.o)
 .data          0x00000000        0x0 c:/program files (x86)/gnu tools arm embedded/5.4 2016q3/bin/../lib/gcc/arm-none-eabi/5.4.1/../../../../arm-none-eabi/lib/armv7e-m\libg.a(lib_a-ctype_.o)
 .bss           0x00000000        0x0 c:/program files (x86)/gnu tools arm embedded/5.4 2016q3/bin/../lib/gcc/arm-none-eabi/5.4.1/../../../../arm-none-eabi/lib/armv7e-m\libg.a(lib_a-ctype_.o)
 .data          0x00000000        0x0 c:/program files (x86)/gnu tools arm embedded/5.4 2016q3/bin/../lib/gcc/arm-none-eabi/5.4.1/armv7e-m\libgcc.a(_arm_unorddf2.o)
 .bss           0x00000000        0x0 c:/program files (x86)/gnu tools arm embedded/5.4 2016q3/bin/../lib/gcc/arm-none-eabi/5.4.1/armv7e-m\libgcc.a(_arm_unorddf2.o)
 .data          0x00000000        0x0 c:/program files (x86)/gnu tools arm embedded/5.4 2016q3/bin/../lib/gcc/arm-none-eabi/5.4.1/armv7e-m\libgcc.a(_arm_fixdfsi.o)
 .bss           0x00000000        0x0 c:/program files (x86)/gnu tools arm embedded/5.4 2016q3/bin/../lib/gcc/arm-none-eabi/5.4.1/armv7e-m\libgcc.a(_arm_fixdfsi.o)
 .data          0x00000000        0x0 c:/program files (x86)/gnu tools arm embedded/5.4 2016q3/bin/../lib/gcc/arm-none-eabi/5.4.1/armv7e-m\libgcc.a(_aeabi_uldivmod.o)
 .bss           0x00000000        0x0 c:/program files (x86)/gnu tools arm embedded/5.4 2016q3/bin/../lib/gcc/arm-none-eabi/5.4.1/armv7e-m\libgcc.a(_aeabi_uldivmod.o)
 .data          0x00000000        0x0 c:/program files (x86)/gnu tools arm embedded/5.4 2016q3/bin/../lib/gcc/arm-none-eabi/5.4.1/armv7e-m\libgcc.a(_udivmoddi4.o)
 .bss           0x00000000        0x0 c:/program files (x86)/gnu tools arm embedded/5.4 2016q3/bin/../lib/gcc/arm-none-eabi/5.4.1/armv7e-m\libgcc.a(_udivmoddi4.o)
 .ARM.extab     0x00000000        0x0 c:/program files (x86)/gnu tools arm embedded/5.4 2016q3/bin/../lib/gcc/arm-none-eabi/5.4.1/armv7e-m\libgcc.a(_udivmoddi4.o)
 .data          0x00000000        0x0 c:/program files (x86)/gnu tools arm embedded/5.4 2016q3/bin/../lib/gcc/arm-none-eabi/5.4.1/armv7e-m\libgcc.a(_dvmd_tls.o)
 .bss           0x00000000        0x0 c:/program files (x86)/gnu tools arm embedded/5.4 2016q3/bin/../lib/gcc/arm-none-eabi/5.4.1/armv7e-m\libgcc.a(_dvmd_tls.o)

Memory Configuration

Name             Origin             Length             Attributes
rom              0x08000000         0x00100000         xr
ram              0x20000000         0x00020000         xrw
ram1             0x10000000         0x00010000         xrw
*default*        0x00000000         0xffffffff

Linker script and memory map

                0x20020000                _eram = 0x20020000

.text           0x08000000    0x15621
 *(.isr_vector)
 .isr_vector    0x08000000      0x188 ..\obj\startup_stm32f4xx.o
                0x08000000                g_pfnVectors
 *(.text*)
 .text.USB_OTG_CoreReset
                0x08000188       0x68 ..\obj\usb_core.o
 .text.USB_OTG_WritePacket
                0x080001f0       0x28 ..\obj\usb_core.o
                0x080001f0                USB_OTG_WritePacket
 .text.USB_OTG_ReadPacket
                0x08000218       0x28 ..\obj\usb_core.o
                0x08000218                USB_OTG_ReadPacket
 .text.USB_OTG_SelectCore
                0x08000240       0xd4 ..\obj\usb_core.o
                0x08000240                USB_OTG_SelectCore
 .text.USB_OTG_CoreInit
                0x08000314       0x90 ..\obj\usb_core.o
                0x08000314                USB_OTG_CoreInit
 .text.USB_OTG_EnableGlobalInt
                0x080003a4       0x10 ..\obj\usb_core.o
                0x080003a4                USB_OTG_EnableGlobalInt
 .text.USB_OTG_DisableGlobalInt
                0x080003b4       0x10 ..\obj\usb_core.o
                0x080003b4                USB_OTG_DisableGlobalInt
 .text.USB_OTG_FlushTxFifo
                0x080003c4       0x4c ..\obj\usb_core.o
                0x080003c4                USB_OTG_FlushTxFifo
 .text.USB_OTG_FlushRxFifo
                0x08000410       0x44 ..\obj\usb_core.o
                0x08000410                USB_OTG_FlushRxFifo
 .text.USB_OTG_SetCurrentMode
                0x08000454       0x2c ..\obj\usb_core.o
                0x08000454                USB_OTG_SetCurrentMode
 .text.USB_OTG_IsHostMode
                0x08000480        0xc ..\obj\usb_core.o
                0x08000480                USB_OTG_IsHostMode
 .text.USB_OTG_ReadCoreItr
                0x0800048c        0xc ..\obj\usb_core.o
                0x0800048c                USB_OTG_ReadCoreItr
 .text.USB_OTG_IsEvenFrame
                0x08000498       0x10 ..\obj\usb_core.o
                0x08000498                USB_OTG_IsEvenFrame
 .text.USB_OTG_EnableHostInt
                0x080004a8       0x44 ..\obj\usb_core.o
                0x080004a8                USB_OTG_EnableHostInt
 .text.USB_OTG_InitFSLSPClkSel
                0x080004ec        0xc ..\obj\usb_core.o
                0x080004ec                USB_OTG_InitFSLSPClkSel
 .text.USB_OTG_ReadHPRT0
                0x080004f8        0xc ..\obj\usb_core.o
                0x080004f8                USB_OTG_ReadHPRT0
 .text.USB_OTG_DriveVbus
                0x08000504       0x40 ..\obj\usb_core.o
                0x08000504                USB_OTG_DriveVbus
 .text.USB_OTG_ReadHostAllChannels_intr
                0x08000544        0x8 ..\obj\usb_core.o
                0x08000544                USB_OTG_ReadHostAllChannels_intr
 .text.USB_OTG_ResetPort
                0x0800054c       0x2c ..\obj\usb_core.o
                0x0800054c                USB_OTG_ResetPort
 .text.USB_OTG_CoreInitHost
                0x08000578       0xa0 ..\obj\usb_core.o
                0x08000578                USB_OTG_CoreInitHost
 .text.USB_OTG_HC_Init
                0x08000618       0xf8 ..\obj\usb_core.o
                0x08000618                USB_OTG_HC_Init
 .text.USB_OTG_HC_StartXfer
                0x08000710      0x140 ..\obj\usb_core.o
                0x08000710                USB_OTG_HC_StartXfer
 .text.USB_OTG_HC_Halt
                0x08000850       0x3c ..\obj\usb_core.o
                0x08000850                USB_OTG_HC_Halt
 .text.USB_OTG_HC_DoPing
                0x0800088c       0x30 ..\obj\usb_core.o
                0x0800088c                USB_OTG_HC_DoPing
 .text.DequantBlock
                0x080008bc      0x168 ..\obj\dqchan.o
 .text.xmp3fixpt_DequantChannel
                0x08000a24      0x284 ..\obj\dqchan.o
                0x08000a24                xmp3fixpt_DequantChannel
 .text.xmp3fixpt_UnpackScaleFactors
                0x08000ca8      0x708 ..\obj\scalfact.o
                0x08000ca8                xmp3fixpt_UnpackScaleFactors
 .text.I2C_Init_Amp
                0x080013b0       0x50 ..\obj\i2c.o
                0x080013b0                I2C_Init_Amp
 .text.I2C_start
                0x08001400       0x6c ..\obj\i2c.o
                0x08001400                I2C_start
 .text.I2C_write
                0x0800146c       0x1c ..\obj\i2c.o
                0x0800146c                I2C_write
 .text.I2C_stop
                0x08001488        0xc ..\obj\i2c.o
                0x08001488                I2C_stop
 .text.Mp3OpenFile
                0x08001494       0x2c ..\obj\mp3.o
                0x08001494                Mp3OpenFile
 .text.Mp3Play  0x080014c0      0x1e0 ..\obj\mp3.o
                0x080014c0                Mp3Play
 .text.Mp3SendBuffer
                0x080016a0       0x64 ..\obj\mp3.o
                0x080016a0                Mp3SendBuffer
 .text.Mp3MountDevices
                0x08001704       0x4c ..\obj\mp3.o
                0x08001704                Mp3MountDevices
 .text.Mp3ChangeTrack
                0x08001750       0x18 ..\obj\mp3.o
                0x08001750                Mp3ChangeTrack
 .text.Mp3PauseTrack
                0x08001768        0xc ..\obj\mp3.o
                0x08001768                Mp3PauseTrack
 .text.Mp3StartResumeTrack
                0x08001774       0x20 ..\obj\mp3.o
                0x08001774                Mp3StartResumeTrack
 .text.Mp3GetActTrackInd
                0x08001794        0xc ..\obj\mp3.o
                0x08001794                Mp3GetActTrackInd
 .text.xmp3fixpt_SetBitstreamPointer
                0x080017a0        0xc ..\obj\bitstream.o
                0x080017a0                xmp3fixpt_SetBitstreamPointer
 .text.xmp3fixpt_GetBits
                0x080017ac       0xb4 ..\obj\bitstream.o
                0x080017ac                xmp3fixpt_GetBits
 .text.xmp3fixpt_CalcBitsUsed
                0x08001860       0x10 ..\obj\bitstream.o
                0x08001860                xmp3fixpt_CalcBitsUsed
 .text.xmp3fixpt_CheckPadBit
                0x08001870       0x1c ..\obj\bitstream.o
                0x08001870                xmp3fixpt_CheckPadBit
 .text.xmp3fixpt_UnpackFrameHeader
                0x0800188c      0x1f8 ..\obj\bitstream.o
                0x0800188c                xmp3fixpt_UnpackFrameHeader
 .text.xmp3fixpt_UnpackSideInfo
                0x08001a84      0x250 ..\obj\bitstream.o
                0x08001a84                xmp3fixpt_UnpackSideInfo
 .text.xmp3fixpt_Dequantize
                0x08001cd4      0x278 ..\obj\dequant.o
                0x08001cd4                xmp3fixpt_Dequantize
 .text.TM_EXTI_Attach
                0x08001f4c      0x1d0 ..\obj\tm_stm32f4_exti.o
                0x08001f4c                TM_EXTI_Attach
 .text.EXTI0_IRQHandler
                0x0800211c       0x1c ..\obj\tm_stm32f4_exti.o
                0x0800211c                EXTI0_IRQHandler
 .text.EXTI1_IRQHandler
                0x08002138       0x1c ..\obj\tm_stm32f4_exti.o
                0x08002138                EXTI1_IRQHandler
 .text.EXTI2_IRQHandler
                0x08002154       0x1c ..\obj\tm_stm32f4_exti.o
                0x08002154                EXTI2_IRQHandler
 .text.EXTI3_IRQHandler
                0x08002170       0x1c ..\obj\tm_stm32f4_exti.o
                0x08002170                EXTI3_IRQHandler
 .text.EXTI4_IRQHandler
                0x0800218c       0x1c ..\obj\tm_stm32f4_exti.o
                0x0800218c                EXTI4_IRQHandler
 .text.EXTI9_5_IRQHandler
                0x080021a8       0x70 ..\obj\tm_stm32f4_exti.o
                0x080021a8                EXTI9_5_IRQHandler
 .text.EXTI15_10_IRQHandler
                0x08002218       0x8c ..\obj\tm_stm32f4_exti.o
                0x08002218                EXTI15_10_IRQHandler
 .text.WinPrevious
                0x080022a4      0x128 ..\obj\imdct.o
 .text.FreqInvertRescale
                0x080023cc      0x198 ..\obj\imdct.o
 .text.xmp3fixpt_IMDCT
                0x08002564      0xd58 ..\obj\imdct.o
                0x08002564                xmp3fixpt_IMDCT
 .text.Tim2Init
                0x080032bc       0x50 ..\obj\timer.o
                0x080032bc                Tim2Init
 .text.Tim2Start
                0x0800330c       0x1c ..\obj\timer.o
                0x0800330c                Tim2Start
 .text.Tim4Start
                0x08003328       0x1c ..\obj\timer.o
                0x08003328                Tim4Start
 .text.Tim2Stop
                0x08003344       0x1c ..\obj\timer.o
                0x08003344                Tim2Stop
 .text.Tim4Stop
                0x08003360       0x1c ..\obj\timer.o
                0x08003360                Tim4Stop
 .text.Tim4Init
                0x0800337c       0x54 ..\obj\timer.o
                0x0800337c                Tim4Init
 .text.USBH_Open_Channel
                0x080033d0       0x50 ..\obj\usbh_hcs.o
                0x080033d0                USBH_Open_Channel
 .text.USBH_Modify_Channel
                0x08003420       0x48 ..\obj\usbh_hcs.o
                0x08003420                USBH_Modify_Channel
 .text.USBH_Alloc_Channel
                0x08003468       0x44 ..\obj\usbh_hcs.o
                0x08003468                USBH_Alloc_Channel
 .text.USBH_Free_Channel
                0x080034ac       0x18 ..\obj\usbh_hcs.o
                0x080034ac                USBH_Free_Channel
 .text.USBH_DeAllocate_AllChannel
                0x080034c4       0x20 ..\obj\usbh_hcs.o
                0x080034c4                USBH_DeAllocate_AllChannel
 .text.USART_DeInit
                0x080034e4       0xbc ..\obj\stm32f4xx_usart.o
                0x080034e4                USART_DeInit
 .text.USART_Init
                0x080035a0       0xc0 ..\obj\stm32f4xx_usart.o
                0x080035a0                USART_Init
 .text.USBH_GetDescriptor
                0x08003660       0x30 ..\obj\usbh_stdreq.o
                0x08003660                USBH_GetDescriptor
 .text.USBH_Get_DevDesc
                0x08003690       0xb4 ..\obj\usbh_stdreq.o
                0x08003690                USBH_Get_DevDesc
 .text.USBH_Get_StringDesc
                0x08003744       0x58 ..\obj\usbh_stdreq.o
                0x08003744                USBH_Get_StringDesc
 .text.USBH_Get_CfgDesc
                0x0800379c      0x1e8 ..\obj\usbh_stdreq.o
                0x0800379c                USBH_Get_CfgDesc
 .text.USBH_SetAddress
                0x08003984       0x1c ..\obj\usbh_stdreq.o
                0x08003984                USBH_SetAddress
 .text.USBH_SetCfg
                0x080039a0       0x1c ..\obj\usbh_stdreq.o
                0x080039a0                USBH_SetCfg
 .text.USBH_ClrFeature
                0x080039bc       0x34 ..\obj\usbh_stdreq.o
                0x080039bc                USBH_ClrFeature
 .text.StrCmp   0x080039f0       0x38 ..\obj\str.o
                0x080039f0                StrCmp
 .text.StrLen   0x08003a28       0x18 ..\obj\str.o
                0x08003a28                StrLen
 .text.StrCopy  0x08003a40       0x18 ..\obj\str.o
                0x08003a40                StrCopy
 .text.StrFillSpace
                0x08003a58       0x1c ..\obj\str.o
                0x08003a58                StrFillSpace
 .text.xmp3fixpt_Subband
                0x08003a74      0x128 ..\obj\subband.o
                0x08003a74                xmp3fixpt_Subband
 .text.TM_FATFS_SDRAM_disk_initialize
                0x08003b9c        0x4 ..\obj\diskio.o
                0x08003b9c                TM_FATFS_SDRAM_disk_initialize
 .text.TM_FATFS_SPI_FLASH_disk_initialize
                0x08003ba0        0x4 ..\obj\diskio.o
                0x08003ba0                TM_FATFS_SPI_FLASH_disk_initialize
 .text.TM_FATFS_SDRAM_disk_status
                0x08003ba4        0x4 ..\obj\diskio.o
                0x08003ba4                TM_FATFS_SDRAM_disk_status
 .text.TM_FATFS_SPI_FLASH_disk_status
                0x08003ba8        0x4 ..\obj\diskio.o
                0x08003ba8                TM_FATFS_SPI_FLASH_disk_status
 .text.TM_FATFS_SDRAM_disk_ioctl
                0x08003bac        0x4 ..\obj\diskio.o
                0x08003bac                TM_FATFS_SDRAM_disk_ioctl
 .text.TM_FATFS_SPI_FLASH_disk_ioctl
                0x08003bb0        0x4 ..\obj\diskio.o
                0x08003bb0                TM_FATFS_SPI_FLASH_disk_ioctl
 .text.TM_FATFS_SDRAM_disk_read
                0x08003bb4        0x4 ..\obj\diskio.o
                0x08003bb4                TM_FATFS_SDRAM_disk_read
 .text.TM_FATFS_SPI_FLASH_disk_read
                0x08003bb8        0x4 ..\obj\diskio.o
                0x08003bb8                TM_FATFS_SPI_FLASH_disk_read
 .text.TM_FATFS_SDRAM_disk_write
                0x08003bbc        0x4 ..\obj\diskio.o
                0x08003bbc                TM_FATFS_SDRAM_disk_write
 .text.TM_FATFS_SPI_FLASH_disk_write
                0x08003bc0        0x4 ..\obj\diskio.o
                0x08003bc0                TM_FATFS_SPI_FLASH_disk_write
 .text.disk_initialize
                0x08003bc4       0x1c ..\obj\diskio.o
                0x08003bc4                disk_initialize
 .text.disk_status
                0x08003be0       0x1c ..\obj\diskio.o
                0x08003be0                disk_status
 .text.disk_read
                0x08003bfc       0x30 ..\obj\diskio.o
                0x08003bfc                disk_read
 .text.disk_write
                0x08003c2c       0x30 ..\obj\diskio.o
                0x08003c2c                disk_write
 .text.disk_ioctl
                0x08003c5c       0x20 ..\obj\diskio.o
                0x08003c5c                disk_ioctl
 .text.get_fattime
                0x08003c7c        0x8 ..\obj\diskio.o
                0x08003c7c                get_fattime
 .text.Default_Handler
                0x08003c84        0x4 ..\obj\startup_stm32f4xx.o
                0x08003c84                RTC_Alarm_IRQHandler
                0x08003c84                HASH_RNG_IRQHandler
                0x08003c84                TIM8_CC_IRQHandler
                0x08003c84                DebugMon_Handler
                0x08003c84                TIM1_CC_IRQHandler
                0x08003c84                DMA2_Stream5_IRQHandler
                0x08003c84                HardFault_Handler
                0x08003c84                DMA1_Stream5_IRQHandler
                0x08003c84                PVD_IRQHandler
                0x08003c84                SDIO_IRQHandler
                0x08003c84                TAMP_STAMP_IRQHandler
                0x08003c84                PendSV_Handler
                0x08003c84                NMI_Handler
                0x08003c84                CAN2_RX1_IRQHandler
                0x08003c84                TIM8_TRG_COM_TIM14_IRQHandler
                0x08003c84                TIM1_UP_TIM10_IRQHandler
                0x08003c84                TIM8_UP_TIM13_IRQHandler
                0x08003c84                I2C3_ER_IRQHandler
                0x08003c84                I2C2_EV_IRQHandler
                0x08003c84                DMA1_Stream2_IRQHandler
                0x08003c84                CAN1_RX0_IRQHandler
                0x08003c84                FPU_IRQHandler
                0x08003c84                OTG_HS_WKUP_IRQHandler
                0x08003c84                UsageFault_Handler
                0x08003c84                CAN2_SCE_IRQHandler
                0x08003c84                DMA2_Stream2_IRQHandler
                0x08003c84                SPI1_IRQHandler
                0x08003c84                TIM6_DAC_IRQHandler
                0x08003c84                TIM1_BRK_TIM9_IRQHandler
                0x08003c84                DCMI_IRQHandler
                0x08003c84                CAN2_RX0_IRQHandler
                0x08003c84                DMA2_Stream3_IRQHandler
                0x08003c84                CRYP_IRQHandler
                0x08003c84                CAN1_RX1_IRQHandler
                0x08003c84                DMA2_Stream0_IRQHandler
                0x08003c84                I2C1_EV_IRQHandler
                0x08003c84                DMA1_Stream6_IRQHandler
                0x08003c84                DMA1_Stream1_IRQHandler
                0x08003c84                TIM3_IRQHandler
                0x08003c84                RCC_IRQHandler
                0x08003c84                TIM8_BRK_TIM12_IRQHandler
                0x08003c84                ADC_IRQHandler
                0x08003c84                TIM7_IRQHandler
                0x08003c84                CAN2_TX_IRQHandler
                0x08003c84                TIM5_IRQHandler
                0x08003c84                DMA2_Stream7_IRQHandler
                0x08003c84                I2C3_EV_IRQHandler
                0x08003c84                RTC_WKUP_IRQHandler
                0x08003c84                ETH_WKUP_IRQHandler
                0x08003c84                SPI2_IRQHandler
                0x08003c84                OTG_HS_EP1_IN_IRQHandler
                0x08003c84                MemManage_Handler
                0x08003c84                DMA1_Stream0_IRQHandler
                0x08003c84                CAN1_TX_IRQHandler
                0x08003c84                SVC_Handler
                0x08003c84                FSMC_IRQHandler
                0x08003c84                ETH_IRQHandler
                0x08003c84                OTG_HS_EP1_OUT_IRQHandler
                0x08003c84                WWDG_IRQHandler
                0x08003c84                OTG_FS_WKUP_IRQHandler
                0x08003c84                TIM1_TRG_COM_TIM11_IRQHandler
                0x08003c84                OTG_HS_IRQHandler
                0x08003c84                I2C2_ER_IRQHandler
                0x08003c84                DMA2_Stream1_IRQHandler
                0x08003c84                CAN1_SCE_IRQHandler
                0x08003c84                FLASH_IRQHandler
                0x08003c84                DMA2_Stream4_IRQHandler
                0x08003c84                BusFault_Handler
                0x08003c84                SPI3_IRQHandler
                0x08003c84                DMA1_Stream4_IRQHandler
                0x08003c84                I2C1_ER_IRQHandler
                0x08003c84                DMA2_Stream6_IRQHandler
                0x08003c84                DMA1_Stream3_IRQHandler
 .text.Default_Reset_Handler
                0x08003c88       0x50 ..\obj\startup_stm32f4xx.o
                0x08003c88                Default_Reset_Handler
                0x08003c88                Reset_Handler
 .text.TM_FATFS_USB_disk_initialize
                0x08003cd8       0x3c ..\obj\fatfs_usb.o
                0x08003cd8                TM_FATFS_USB_disk_initialize
 .text.TM_FATFS_USB_disk_status
                0x08003d14        0xc ..\obj\fatfs_usb.o
                0x08003d14                TM_FATFS_USB_disk_status
 .text.TM_FATFS_USB_disk_read
                0x08003d20       0x88 ..\obj\fatfs_usb.o
                0x08003d20                TM_FATFS_USB_disk_read
 .text.TM_FATFS_USB_disk_write
                0x08003da8       0x94 ..\obj\fatfs_usb.o
                0x08003da8                TM_FATFS_USB_disk_write
 .text.TM_FATFS_USB_disk_ioctl
                0x08003e3c       0x48 ..\obj\fatfs_usb.o
                0x08003e3c                TM_FATFS_USB_disk_ioctl
 .text.MP3ClearBadFrame
                0x08003e84       0x48 ..\obj\mp3dec.o
 .text.MP3InitDecoder
                0x08003ecc        0x8 ..\obj\mp3dec.o
                0x08003ecc                MP3InitDecoder
 .text.MP3FindSyncWord
                0x08003ed4       0x34 ..\obj\mp3dec.o
                0x08003ed4                MP3FindSyncWord
 .text.MP3GetLastFrameInfo
                0x08003f08       0x68 ..\obj\mp3dec.o
                0x08003f08                MP3GetLastFrameInfo
 .text.MP3Decode
                0x08003f70      0x368 ..\obj\mp3dec.o
                0x08003f70                MP3Decode
 .text.main     0x080042d8       0x8c ..\obj\main.o
                0x080042d8                main
 .text.RCC_GetClocksFreq
                0x08004364       0xa4 ..\obj\stm32f4xx_rcc.o
                0x08004364                RCC_GetClocksFreq
 .text.RCC_AHB1PeriphClockCmd
                0x08004408       0x1c ..\obj\stm32f4xx_rcc.o
                0x08004408                RCC_AHB1PeriphClockCmd
 .text.RCC_AHB2PeriphClockCmd
                0x08004424       0x1c ..\obj\stm32f4xx_rcc.o
                0x08004424                RCC_AHB2PeriphClockCmd
 .text.RCC_APB1PeriphClockCmd
                0x08004440       0x1c ..\obj\stm32f4xx_rcc.o
                0x08004440                RCC_APB1PeriphClockCmd
 .text.RCC_APB2PeriphClockCmd
                0x0800445c       0x1c ..\obj\stm32f4xx_rcc.o
                0x0800445c                RCC_APB2PeriphClockCmd
 .text.RCC_APB1PeriphResetCmd
                0x08004478       0x1c ..\obj\stm32f4xx_rcc.o
                0x08004478                RCC_APB1PeriphResetCmd
 .text.RCC_APB2PeriphResetCmd
                0x08004494       0x1c ..\obj\stm32f4xx_rcc.o
                0x08004494                RCC_APB2PeriphResetCmd
 .text.TM_USART_INT_InsertToBuffer
                0x080044b0       0x28 ..\obj\tm_stm32f4_usart.o
                0x080044b0                TM_USART_INT_InsertToBuffer
 .text.TM_USART_InitCustomPinsCallback
                0x080044d8        0x4 ..\obj\tm_stm32f4_usart.o
                0x080044d8                TM_USART_InitCustomPinsCallback
 .text.TM_USART_INT_GetUsart
                0x080044dc       0x60 ..\obj\tm_stm32f4_usart.o
                0x080044dc                TM_USART_INT_GetUsart
 .text.TM_USART_Getc
                0x0800453c       0x64 ..\obj\tm_stm32f4_usart.o
                0x0800453c                TM_USART_Getc
 .text.TM_USART_FindCharacter
                0x080045a0       0x38 ..\obj\tm_stm32f4_usart.o
                0x080045a0                TM_USART_FindCharacter
 .text.TM_USART_Gets
                0x080045d8       0x60 ..\obj\tm_stm32f4_usart.o
                0x080045d8                TM_USART_Gets
 .text.TM_USART_INT_GetSubPriority
                0x08004638       0x44 ..\obj\tm_stm32f4_usart.o
                0x08004638                TM_USART_INT_GetSubPriority
 .text.TM_USART1_InitPins
                0x0800467c       0x58 ..\obj\tm_stm32f4_usart.o
                0x0800467c                TM_USART1_InitPins
 .text.TM_USART2_InitPins
                0x080046d4       0x54 ..\obj\tm_stm32f4_usart.o
                0x080046d4                TM_USART2_InitPins
 .text.TM_USART3_InitPins
                0x08004728       0x7c ..\obj\tm_stm32f4_usart.o
                0x08004728                TM_USART3_InitPins
 .text.TM_UART4_InitPins
                0x080047a4       0x54 ..\obj\tm_stm32f4_usart.o
                0x080047a4                TM_UART4_InitPins
 .text.TM_UART5_InitPins
                0x080047f8       0x4c ..\obj\tm_stm32f4_usart.o
                0x080047f8                TM_UART5_InitPins
 .text.TM_USART6_InitPins
                0x08004844       0x58 ..\obj\tm_stm32f4_usart.o
                0x08004844                TM_USART6_InitPins
 .text.TM_USART_INT_Init
                0x0800489c      0x15c ..\obj\tm_stm32f4_usart.o
 .text.TM_USART_Init
                0x080049f8       0xd4 ..\obj\tm_stm32f4_usart.o
                0x080049f8                TM_USART_Init
 .text.USART1_IRQHandler
                0x08004acc       0x24 ..\obj\tm_stm32f4_usart.o
                0x08004acc                USART1_IRQHandler
 .text.USART2_IRQHandler
                0x08004af0       0x24 ..\obj\tm_stm32f4_usart.o
                0x08004af0                USART2_IRQHandler
 .text.USART3_IRQHandler
                0x08004b14       0x24 ..\obj\tm_stm32f4_usart.o
                0x08004b14                USART3_IRQHandler
 .text.UART4_IRQHandler
                0x08004b38       0x24 ..\obj\tm_stm32f4_usart.o
                0x08004b38                UART4_IRQHandler
 .text.UART5_IRQHandler
                0x08004b5c       0x24 ..\obj\tm_stm32f4_usart.o
                0x08004b5c                UART5_IRQHandler
 .text.USART6_IRQHandler
                0x08004b80       0x24 ..\obj\tm_stm32f4_usart.o
                0x08004b80                USART6_IRQHandler
 .text.TM_RE_Init
                0x08004ba4       0x40 ..\obj\tm_stm32f4_rotary_encoder.o
                0x08004ba4                TM_RE_Init
 .text.TM_RE_Get
                0x08004be4       0x24 ..\obj\tm_stm32f4_rotary_encoder.o
                0x08004be4                TM_RE_Get
 .text.TM_RE_Process
                0x08004c08       0x4c ..\obj\tm_stm32f4_rotary_encoder.o
                0x08004c08                TM_RE_Process
 .text.wait_ready
                0x08004c54       0x68 ..\obj\fatfs_sd.o
 .text.deselect
                0x08004cbc       0x58 ..\obj\fatfs_sd.o
 .text.select   0x08004d14       0x70 ..\obj\fatfs_sd.o
 .text.xmit_datablock
                0x08004d84      0x14c ..\obj\fatfs_sd.o
 .text.rcvr_datablock
                0x08004ed0      0x100 ..\obj\fatfs_sd.o
 .text.send_cmd
                0x08004fd0      0x28c ..\obj\fatfs_sd.o
 .text.TM_FATFS_InitPins
                0x0800525c       0x20 ..\obj\fatfs_sd.o
                0x0800525c                TM_FATFS_InitPins
 .text.TM_FATFS_SD_disk_initialize
                0x0800527c      0x250 ..\obj\fatfs_sd.o
                0x0800527c                TM_FATFS_SD_disk_initialize
 .text.TM_FATFS_SD_disk_status
                0x080054cc       0x14 ..\obj\fatfs_sd.o
                0x080054cc                TM_FATFS_SD_disk_status
 .text.TM_FATFS_SD_disk_read
                0x080054e0       0x78 ..\obj\fatfs_sd.o
                0x080054e0                TM_FATFS_SD_disk_read
 .text.TM_FATFS_SD_disk_write
                0x08005558       0x9c ..\obj\fatfs_sd.o
                0x08005558                TM_FATFS_SD_disk_write
 .text.TM_FATFS_SD_disk_ioctl
                0x080055f4      0x298 ..\obj\fatfs_sd.o
                0x080055f4                TM_FATFS_SD_disk_ioctl
 .text.USBH_MSC_ClassRequest
                0x0800588c        0xc ..\obj\usbh_msc_core.o
 .text.USBH_MSC_InterfaceDeInit
                0x08005898       0x3c ..\obj\usbh_msc_core.o
 .text.USBH_MSC_InterfaceInit
                0x080058d4       0xb0 ..\obj\usbh_msc_core.o
 .text.USBH_MSC_ErrorHandle
                0x08005984       0x3c ..\obj\usbh_msc_core.o
                0x08005984                USBH_MSC_ErrorHandle
 .text.USBH_MSC_Handle
                0x080059c0      0x1a8 ..\obj\usbh_msc_core.o
 .text.BTBtnsProc
                0x08005b68       0x38 ..\obj\bt.o
                0x08005b68                BTBtnsProc
 .text.Gpio_Init
                0x08005ba0      0x12c ..\obj\gpio.o
                0x08005ba0                Gpio_Init
 .text.SysTick_Handler
                0x08005ccc       0x90 ..\obj\tm_stm32f4_delay.o
                0x08005ccc                SysTick_Handler
 .text.TM_DELAY_Init
                0x08005d5c       0x58 ..\obj\tm_stm32f4_delay.o
                0x08005d5c                TM_DELAY_Init
 .text.File_Cmp_Ext
                0x08005db4       0x24 ..\obj\file.o
                0x08005db4                File_Cmp_Ext
 .text.scan_files
                0x08005dd8      0x104 ..\obj\file.o
                0x08005dd8                scan_files
 .text.TM_SPI_WriteMulti
                0x08005edc       0x4c ..\obj\tm_stm32f4_spi.o
                0x08005edc                TM_SPI_WriteMulti
 .text.TM_SPI_ReadMulti
                0x08005f28       0x4c ..\obj\tm_stm32f4_spi.o
                0x08005f28                TM_SPI_ReadMulti
 .text.TM_SPI_InitCustomPinsCallback
                0x08005f74        0x4 ..\obj\tm_stm32f4_spi.o
                0x08005f74                TM_SPI_InitCustomPinsCallback
 .text.TM_SPI1_INT_InitPins
                0x08005f78       0x54 ..\obj\tm_stm32f4_spi.o
                0x08005f78                TM_SPI1_INT_InitPins
 .text.TM_SPIx_Init
                0x08005fcc       0xbc ..\obj\tm_stm32f4_spi.o
 .text.TM_SPI_Init
                0x08006088       0x28 ..\obj\tm_stm32f4_spi.o
                0x08006088                TM_SPI_Init
 .text.MenuInit
                0x080060b0       0x40 ..\obj\menu.o
                0x080060b0                MenuInit
 .text.TM_EXTI_Handler
                0x080060f0       0x2c ..\obj\menu.o
                0x080060f0                TM_EXTI_Handler
 .text.RotSwPRessed
                0x0800611c       0x14 ..\obj\menu.o
                0x0800611c                RotSwPRessed
 .text.ButtonPRessed
                0x08006130       0x14 ..\obj\menu.o
                0x08006130                ButtonPRessed
 .text.TIM2_IRQHandler
                0x08006144       0x3c ..\obj\menu.o
                0x08006144                TIM2_IRQHandler
 .text.TIM4_IRQHandler
                0x08006180       0x38 ..\obj\menu.o
                0x08006180                TIM4_IRQHandler
 .text.RemoveId3
                0x080061b8       0x28 ..\obj\menu.o
                0x080061b8                RemoveId3
 .text.RemoveFromIndex
                0x080061e0       0xa4 ..\obj\menu.o
                0x080061e0                RemoveFromIndex
 .text.PutId3   0x08006284       0x54 ..\obj\menu.o
                0x08006284                PutId3
 .text.PutToIndex
                0x080062d8       0x8c ..\obj\menu.o
                0x080062d8                PutToIndex
 .text.ChangeToList
                0x08006364       0x10 ..\obj\menu.o
                0x08006364                ChangeToList
 .text.MainMenuProc
                0x08006374      0x228 ..\obj\menu.o
                0x08006374                MainMenuProc
 .text.ChangeToMain
                0x0800659c       0x10 ..\obj\menu.o
                0x0800659c                ChangeToMain
 .text.ListProc
                0x080065ac      0x194 ..\obj\menu.o
                0x080065ac                ListProc
 .text.MenuProc
                0x08006740       0x24 ..\obj\menu.o
                0x08006740                MenuProc
 .text.USBH_Connected
                0x08006764        0xc ..\obj\usbh_core.o
                0x08006764                USBH_Connected
 .text.USBH_Disconnected
                0x08006770        0xc ..\obj\usbh_core.o
                0x08006770                USBH_Disconnected
 .text.USBH_SOF
                0x0800677c        0x4 ..\obj\usbh_core.o
                0x0800677c                USBH_SOF
 .text.USBH_DeInit
                0x08006780       0x34 ..\obj\usbh_core.o
                0x08006780                USBH_DeInit
 .text.USBH_Init
                0x080067b4       0x40 ..\obj\usbh_core.o
                0x080067b4                USBH_Init
 .text.USBH_ErrorHandle
                0x080067f4       0x2c ..\obj\usbh_core.o
                0x080067f4                USBH_ErrorHandle
 .text.USBH_HandleControl
                0x08006820      0x234 ..\obj\usbh_core.o
                0x08006820                USBH_HandleControl
 .text.USBH_Process
                0x08006a54      0x390 ..\obj\usbh_core.o
                0x08006a54                USBH_Process
 .text.GPIO_Init
                0x08006de4       0x90 ..\obj\stm32f4xx_gpio.o
                0x08006de4                GPIO_Init
 .text.GPIO_ReadInputDataBit
                0x08006e74        0xc ..\obj\stm32f4xx_gpio.o
                0x08006e74                GPIO_ReadInputDataBit
 .text.GPIO_SetBits
                0x08006e80        0x4 ..\obj\stm32f4xx_gpio.o
                0x08006e80                GPIO_SetBits
 .text.GPIO_ResetBits
                0x08006e84        0x4 ..\obj\stm32f4xx_gpio.o
                0x08006e84                GPIO_ResetBits
 .text.GPIO_WriteBit
                0x08006e88        0xc ..\obj\stm32f4xx_gpio.o
                0x08006e88                GPIO_WriteBit
 .text.GPIO_PinAFConfig
                0x08006e94       0x28 ..\obj\stm32f4xx_gpio.o
                0x08006e94                GPIO_PinAFConfig
 .text.Mp3ReadId3V2Text
                0x08006ebc       0xc0 ..\obj\id3.o
                0x08006ebc                Mp3ReadId3V2Text
 .text.Mp3ReadId3V2Tag
                0x08006f7c      0x1d0 ..\obj\id3.o
                0x08006f7c                Mp3ReadId3V2Tag
 .text.USBH_MSC_TestUnitReady
                0x0800714c       0xa0 ..\obj\usbh_msc_scsi.o
                0x0800714c                USBH_MSC_TestUnitReady
 .text.USBH_MSC_ReadCapacity10
                0x080071ec       0xbc ..\obj\usbh_msc_scsi.o
                0x080071ec                USBH_MSC_ReadCapacity10
 .text.USBH_MSC_ModeSense6
                0x080072a8       0xb8 ..\obj\usbh_msc_scsi.o
                0x080072a8                USBH_MSC_ModeSense6
 .text.USBH_MSC_RequestSense
                0x08007360       0xc0 ..\obj\usbh_msc_scsi.o
                0x08007360                USBH_MSC_RequestSense
 .text.USBH_MSC_Write10
                0x08007420       0xc0 ..\obj\usbh_msc_scsi.o
                0x08007420                USBH_MSC_Write10
 .text.USBH_MSC_Read10
                0x080074e0       0xe4 ..\obj\usbh_msc_scsi.o
                0x080074e0                USBH_MSC_Read10
 .text.SystemInit
                0x080075c4       0xf4 ..\obj\system_stm32f4xx.o
                0x080075c4                SystemInit
 .text.DMA_Audio_Init_Single
                0x080076b8       0x74 ..\obj\DMA.o
                0x080076b8                DMA_Audio_Init_Single
 .text.DMA_Audio_Send
                0x0800772c       0x14 ..\obj\DMA.o
                0x0800772c                DMA_Audio_Send
 .text.DMA1_Stream7_IRQHandler
                0x08007740       0x5c ..\obj\DMA.o
                0x08007740                DMA1_Stream7_IRQHandler
 .text._sbrk    0x0800779c       0x20 ..\obj\syscalls.o
                0x0800779c                _sbrk
 .text.DMA_ClearFlag
                0x080077bc       0x34 ..\obj\stm32f4xx_dma.o
                0x080077bc                DMA_ClearFlag
 .text.DMA_ITConfig
                0x080077f0       0x44 ..\obj\stm32f4xx_dma.o
                0x080077f0                DMA_ITConfig
 .text.DMA_GetITStatus
                0x08007834       0x5c ..\obj\stm32f4xx_dma.o
                0x08007834                DMA_GetITStatus
 .text.DMA_ClearITPendingBit
                0x08007890       0x34 ..\obj\stm32f4xx_dma.o
                0x08007890                DMA_ClearITPendingBit
 .text.USBH_USR_Init
                0x080078c4       0x18 ..\obj\usbh_usr.o
                0x080078c4                USBH_USR_Init
 .text.USBH_USR_DeviceAttached
                0x080078dc       0x18 ..\obj\usbh_usr.o
                0x080078dc                USBH_USR_DeviceAttached
 .text.USBH_USR_UnrecoveredError
                0x080078f4       0x18 ..\obj\usbh_usr.o
                0x080078f4                USBH_USR_UnrecoveredError
 .text.USBH_USR_DeviceDisconnected
                0x0800790c       0x18 ..\obj\usbh_usr.o
                0x0800790c                USBH_USR_DeviceDisconnected
 .text.USBH_USR_ResetDevice
                0x08007924        0xc ..\obj\usbh_usr.o
                0x08007924                USBH_USR_ResetDevice
 .text.USBH_USR_DeviceSpeedDetected
                0x08007930        0x4 ..\obj\usbh_usr.o
                0x08007930                USBH_USR_DeviceSpeedDetected
 .text.USBH_USR_Device_DescAvailable
                0x08007934        0x4 ..\obj\usbh_usr.o
                0x08007934                USBH_USR_Device_DescAvailable
 .text.USBH_USR_DeviceAddressAssigned
                0x08007938        0x4 ..\obj\usbh_usr.o
                0x08007938                USBH_USR_DeviceAddressAssigned
 .text.USBH_USR_Configuration_DescAvailable
                0x0800793c        0x4 ..\obj\usbh_usr.o
                0x0800793c                USBH_USR_Configuration_DescAvailable
 .text.USBH_USR_Manufacturer_String
                0x08007940        0x4 ..\obj\usbh_usr.o
                0x08007940                USBH_USR_Manufacturer_String
 .text.USBH_USR_Product_String
                0x08007944        0x4 ..\obj\usbh_usr.o
                0x08007944                USBH_USR_Product_String
 .text.USBH_USR_SerialNum_String
                0x08007948        0x4 ..\obj\usbh_usr.o
                0x08007948                USBH_USR_SerialNum_String
 .text.USBH_USR_EnumerationDone
                0x0800794c        0x4 ..\obj\usbh_usr.o
                0x0800794c                USBH_USR_EnumerationDone
 .text.USBH_USR_DeviceNotSupported
                0x08007950        0xc ..\obj\usbh_usr.o
                0x08007950                USBH_USR_DeviceNotSupported
 .text.USBH_USR_UserInput
                0x0800795c        0x4 ..\obj\usbh_usr.o
                0x0800795c                USBH_USR_UserInput
 .text.USBH_USR_OverCurrentDetected
                0x08007960        0xc ..\obj\usbh_usr.o
                0x08007960                USBH_USR_OverCurrentDetected
 .text.USBH_USR_MSC_Application
                0x0800796c       0x30 ..\obj\usbh_usr.o
                0x0800796c                USBH_USR_MSC_Application
 .text.USBH_USR_DeInit
                0x0800799c        0xc ..\obj\usbh_usr.o
                0x0800799c                USBH_USR_DeInit
 .text.Cs43InitGpios
                0x080079a8       0x90 ..\obj\i2s.o
                0x080079a8                Cs43InitGpios
 .text.Cs43Init
                0x08007a38       0x48 ..\obj\i2s.o
                0x08007a38                Cs43Init
 .text.USB_OTG_BSP_Init
                0x08007a80       0x6c ..\obj\usb_bsp.o
                0x08007a80                USB_OTG_BSP_Init
 .text.USB_OTG_BSP_EnableInterrupt
                0x08007aec       0x2c ..\obj\usb_bsp.o
                0x08007aec                USB_OTG_BSP_EnableInterrupt
 .text.USB_OTG_BSP_DriveVBUS
                0x08007b18       0x20 ..\obj\usb_bsp.o
                0x08007b18                USB_OTG_BSP_DriveVBUS
 .text.USB_OTG_BSP_uDelay
                0x08007b38       0x2c ..\obj\usb_bsp.o
                0x08007b38                USB_OTG_BSP_uDelay
 .text.USB_OTG_BSP_ConfigVBUS
                0x08007b64       0x4c ..\obj\usb_bsp.o
                0x08007b64                USB_OTG_BSP_ConfigVBUS
 .text.USB_OTG_BSP_mDelay
                0x08007bb0       0x10 ..\obj\usb_bsp.o
                0x08007bb0                USB_OTG_BSP_mDelay
 .text.OTG_FS_IRQHandler
                0x08007bc0       0x10 ..\obj\usb_bsp.o
                0x08007bc0                OTG_FS_IRQHandler
 .text.TM_USB_MSCHOST_Process
                0x08007bd0       0x20 ..\obj\tm_stm32f4_usb_msc_host.o
                0x08007bd0                TM_USB_MSCHOST_Process
 .text.TM_USB_MSCHOST_Device
                0x08007bf0       0x18 ..\obj\tm_stm32f4_usb_msc_host.o
                0x08007bf0                TM_USB_MSCHOST_Device
 .text.TM_USB_MSCHOST_Init
                0x08007c08       0x48 ..\obj\tm_stm32f4_usb_msc_host.o
                0x08007c08                TM_USB_MSCHOST_Init
 .text.xmp3fixpt_MidSideProc
                0x08007c50       0x68 ..\obj\stproc.o
                0x08007c50                xmp3fixpt_MidSideProc
 .text.xmp3fixpt_IntensityProcMPEG1
                0x08007cb8      0x330 ..\obj\stproc.o
                0x08007cb8                xmp3fixpt_IntensityProcMPEG1
 .text.xmp3fixpt_IntensityProcMPEG2
                0x08007fe8      0x2b0 ..\obj\stproc.o
                0x08007fe8                xmp3fixpt_IntensityProcMPEG2
 .text.xmp3fixpt_DecodeHuffman
                0x08008298      0x77c ..\obj\huffman.o
                0x08008298                xmp3fixpt_DecodeHuffman
 .text.PreampSetVol
                0x08008a14       0x4c ..\obj\preamp.o
                0x08008a14                PreampSetVol
 .text.PreampSetSpeakAtt
                0x08008a60       0x30 ..\obj\preamp.o
                0x08008a60                PreampSetSpeakAtt
 .text.PreampSetInputGain
                0x08008a90       0x34 ..\obj\preamp.o
                0x08008a90                PreampSetInputGain
 .text.PreampSetBass
                0x08008ac4       0x58 ..\obj\preamp.o
                0x08008ac4                PreampSetBass
 .text.PreampSetTreble
                0x08008b1c       0x58 ..\obj\preamp.o
                0x08008b1c                PreampSetTreble
 .text.PreampInit
                0x08008b74       0x54 ..\obj\preamp.o
                0x08008b74                PreampInit
 .text.PreampSetSourceWrapper
                0x08008bc8       0x4c ..\obj\preamp.o
                0x08008bc8                PreampSetSourceWrapper
 .text.ClearBuffer
                0x08008c14       0x14 ..\obj\buffers.o
 .text.xmp3fixpt_AllocateBuffers
                0x08008c28       0x8c ..\obj\buffers.o
                0x08008c28                xmp3fixpt_AllocateBuffers
 .text.mem_cpy  0x08008cb4       0x14 ..\obj\ff.o
 .text.mem_set  0x08008cc8       0x10 ..\obj\ff.o
 .text.ld_clust
                0x08008cd8       0x20 ..\obj\ff.o
 .text.get_fileinfo
                0x08008cf8       0x68 ..\obj\ff.o
 .text.get_ldnumber
                0x08008d60       0xb8 ..\obj\ff.o
 .text.sync_window
                0x08008e18       0x68 ..\obj\ff.o
 .text.move_window
                0x08008e80       0x38 ..\obj\ff.o
 .text.check_fs
                0x08008eb8       0x8c ..\obj\ff.o
 .text.validate
                0x08008f44       0x38 ..\obj\ff.o
 .text.find_volume
                0x08008f7c      0x3cc ..\obj\ff.o
 .text.sync_fs  0x08009348       0xbc ..\obj\ff.o
 .text.clust2sect
                0x08009404       0x18 ..\obj\ff.o
                0x08009404                clust2sect
 .text.get_fat  0x0800941c       0xe8 ..\obj\ff.o
                0x0800941c                get_fat
 .text.dir_sdi  0x08009504       0xa0 ..\obj\ff.o
 .text.put_fat  0x080095a4      0x13c ..\obj\ff.o
                0x080095a4                put_fat
 .text.create_chain
                0x080096e0       0xc0 ..\obj\ff.o
 .text.dir_next
                0x080097a0      0x124 ..\obj\ff.o
 .text.follow_path
                0x080098c4      0x268 ..\obj\ff.o
 .text.dir_alloc
                0x08009b2c       0x4c ..\obj\ff.o
 .text.dir_register
                0x08009b78       0x38 ..\obj\ff.o
 .text.dir_read
                0x08009bb0       0x5c ..\obj\ff.o
 .text.remove_chain
                0x08009c0c       0x6c ..\obj\ff.o
 .text.f_mount  0x08009c78       0x68 ..\obj\ff.o
                0x08009c78                f_mount
 .text.f_open   0x08009ce0      0x17c ..\obj\ff.o
                0x08009ce0                f_open
 .text.f_read   0x08009e5c      0x178 ..\obj\ff.o
                0x08009e5c                f_read
 .text.f_sync   0x08009fd4       0xac ..\obj\ff.o
                0x08009fd4                f_sync
 .text.f_close  0x0800a080       0x20 ..\obj\ff.o
                0x0800a080                f_close
 .text.f_lseek  0x0800a0a0      0x168 ..\obj\ff.o
                0x0800a0a0                f_lseek
 .text.f_opendir
                0x0800a208       0x7c ..\obj\ff.o
                0x0800a208                f_opendir
 .text.f_closedir
                0x0800a284       0x14 ..\obj\ff.o
                0x0800a284                f_closedir
 .text.f_readdir
                0x0800a298       0x5c ..\obj\ff.o
                0x0800a298                f_readdir
 .text.HCD_Init
                0x0800a2f4       0x54 ..\obj\usb_hcd.o
                0x0800a2f4                HCD_Init
 .text.HCD_GetCurrentSpeed
                0x0800a348        0xc ..\obj\usb_hcd.o
                0x0800a348                HCD_GetCurrentSpeed
 .text.HCD_ResetPort
                0x0800a354        0xc ..\obj\usb_hcd.o
                0x0800a354                HCD_ResetPort
 .text.HCD_IsDeviceConnected
                0x0800a360        0x8 ..\obj\usb_hcd.o
                0x0800a360                HCD_IsDeviceConnected
 .text.HCD_GetCurrentFrame
                0x0800a368        0x8 ..\obj\usb_hcd.o
                0x0800a368                HCD_GetCurrentFrame
 .text.HCD_GetURB_State
                0x0800a370        0x8 ..\obj\usb_hcd.o
                0x0800a370                HCD_GetURB_State
 .text.HCD_GetXferCnt
                0x0800a378        0x8 ..\obj\usb_hcd.o
                0x0800a378                HCD_GetXferCnt
 .text.HCD_SubmitRequest
                0x0800a380       0x18 ..\obj\usb_hcd.o
                0x0800a380                HCD_SubmitRequest
 .text.USBH_MSC_Init
                0x0800a398       0x40 ..\obj\usbh_msc_bot.o
                0x0800a398                USBH_MSC_Init
 .text.USBH_MSC_BOT_Abort
                0x0800a3d8       0x3c ..\obj\usbh_msc_bot.o
                0x0800a3d8                USBH_MSC_BOT_Abort
 .text.USBH_MSC_DecodeCSW
                0x0800a414       0x6c ..\obj\usbh_msc_bot.o
                0x0800a414                USBH_MSC_DecodeCSW
 .text.USBH_MSC_HandleBOTXfer
                0x0800a480      0x2b8 ..\obj\usbh_msc_bot.o
                0x0800a480                USBH_MSC_HandleBOTXfer
 .text.SPI_Init
                0x0800a738       0x40 ..\obj\stm32f4xx_spi.o
                0x0800a738                SPI_Init
 .text.SPI_StructInit
                0x0800a778       0x18 ..\obj\stm32f4xx_spi.o
                0x0800a778                SPI_StructInit
 .text.SPI_I2S_DMACmd
                0x0800a790       0x18 ..\obj\stm32f4xx_spi.o
                0x0800a790                SPI_I2S_DMACmd
 .text.xmp3fixpt_FDCT32
                0x0800a7a8      0x674 ..\obj\dct32.o
                0x0800a7a8                xmp3fixpt_FDCT32
 .text.I2C_Init
                0x0800ae1c       0xe0 ..\obj\stm32f4xx_i2c.o
                0x0800ae1c                I2C_Init
 .text.I2C_Cmd  0x0800aefc       0x1c ..\obj\stm32f4xx_i2c.o
                0x0800aefc                I2C_Cmd
 .text.I2C_GenerateSTART
                0x0800af18       0x1c ..\obj\stm32f4xx_i2c.o
                0x0800af18                I2C_GenerateSTART
 .text.I2C_GenerateSTOP
                0x0800af34       0x1c ..\obj\stm32f4xx_i2c.o
                0x0800af34                I2C_GenerateSTOP
 .text.I2C_Send7bitAddress
                0x0800af50       0x14 ..\obj\stm32f4xx_i2c.o
                0x0800af50                I2C_Send7bitAddress
 .text.I2C_SendData
                0x0800af64        0x4 ..\obj\stm32f4xx_i2c.o
                0x0800af64                I2C_SendData
 .text.I2C_CheckEvent
                0x0800af68       0x1c ..\obj\stm32f4xx_i2c.o
                0x0800af68                I2C_CheckEvent
 .text.I2C_GetFlagStatus
                0x0800af84       0x38 ..\obj\stm32f4xx_i2c.o
                0x0800af84                I2C_GetFlagStatus
 .text.USBH_CtlReq
                0x0800afbc       0x54 ..\obj\usbh_ioreq.o
                0x0800afbc                USBH_CtlReq
 .text.USBH_CtlSendSetup
                0x0800b010       0x30 ..\obj\usbh_ioreq.o
                0x0800b010                USBH_CtlSendSetup
 .text.USBH_CtlSendData
                0x0800b040       0x4c ..\obj\usbh_ioreq.o
                0x0800b040                USBH_CtlSendData
 .text.USBH_CtlReceiveData
                0x0800b08c       0x2c ..\obj\usbh_ioreq.o
                0x0800b08c                USBH_CtlReceiveData
 .text.USBH_BulkSendData
                0x0800b0b8       0x40 ..\obj\usbh_ioreq.o
                0x0800b0b8                USBH_BulkSendData
 .text.USBH_BulkReceiveData
                0x0800b0f8       0x40 ..\obj\usbh_ioreq.o
                0x0800b0f8                USBH_BulkReceiveData
 .text.NVIC_PriorityGroupConfig
                0x0800b138       0x14 ..\obj\misc.o
                0x0800b138                NVIC_PriorityGroupConfig
 .text.NVIC_Init
                0x0800b14c       0x70 ..\obj\misc.o
                0x0800b14c                NVIC_Init
 .text.Sys_DelayUs
                0x0800b1bc       0x14 ..\obj\glcd.o
                0x0800b1bc                Sys_DelayUs
 .text.GLCD_Write
                0x0800b1d0       0xc4 ..\obj\glcd.o
                0x0800b1d0                GLCD_Write
 .text.GLCD_Clear
                0x0800b294       0x4c ..\obj\glcd.o
                0x0800b294                GLCD_Clear
 .text.GLCD_Init
                0x0800b2e0       0x34 ..\obj\glcd.o
                0x0800b2e0                GLCD_Init
 .text.GLCD_Write_Char
                0x0800b314       0x88 ..\obj\glcd.o
                0x0800b314                GLCD_Write_Char
 .text.GLCD_WriteString
                0x0800b39c       0x2c ..\obj\glcd.o
                0x0800b39c                GLCD_WriteString
 .text.TM_GPIO_GetPinSource
                0x0800b3c8       0x18 ..\obj\tm_stm32f4_gpio.o
                0x0800b3c8                TM_GPIO_GetPinSource
 .text.TM_GPIO_GetPortSource
                0x0800b3e0       0x10 ..\obj\tm_stm32f4_gpio.o
                0x0800b3e0                TM_GPIO_GetPortSource
 .text.TM_GPIO_INT_EnableClock
                0x0800b3f0       0x20 ..\obj\tm_stm32f4_gpio.o
                0x0800b3f0                TM_GPIO_INT_EnableClock
 .text.TM_GPIO_INT_Init
                0x0800b410       0xa4 ..\obj\tm_stm32f4_gpio.o
                0x0800b410                TM_GPIO_INT_Init
 .text.TM_GPIO_Init
                0x0800b4b4       0x30 ..\obj\tm_stm32f4_gpio.o
                0x0800b4b4                TM_GPIO_Init
 .text.TM_GPIO_InitAlternate
                0x0800b4e4       0x68 ..\obj\tm_stm32f4_gpio.o
                0x0800b4e4                TM_GPIO_InitAlternate
 .text.xmp3fixpt_PolyphaseMono
                0x0800b54c      0x2bc ..\obj\polyphase.o
                0x0800b54c                xmp3fixpt_PolyphaseMono
 .text.xmp3fixpt_PolyphaseStereo
                0x0800b808      0x56c ..\obj\polyphase.o
                0x0800b808                xmp3fixpt_PolyphaseStereo
 .text.TIM_TimeBaseInit
                0x0800bd74       0x88 ..\obj\stm32f4xx_tim.o
                0x0800bd74                TIM_TimeBaseInit
 .text.TIM_Cmd  0x0800bdfc       0x1c ..\obj\stm32f4xx_tim.o
                0x0800bdfc                TIM_Cmd
 .text.TIM_ITConfig
                0x0800be18       0x18 ..\obj\stm32f4xx_tim.o
                0x0800be18                TIM_ITConfig
 .text.TIM_GetITStatus
                0x0800be30       0x18 ..\obj\stm32f4xx_tim.o
                0x0800be30                TIM_GetITStatus
 .text.TIM_ClearITPendingBit
                0x0800be48        0x8 ..\obj\stm32f4xx_tim.o
                0x0800be48                TIM_ClearITPendingBit
 .text.USBH_OTG_ISR_Handler
                0x0800be50      0x10c ..\obj\usb_hcd_int.o
                0x0800be50                USBH_OTG_ISR_Handler
 .text.USB_OTG_USBH_handle_hc_ISR
                0x0800bf5c       0x8c ..\obj\usb_hcd_int.o
 .text.USB_OTG_USBH_handle_sof_ISR
                0x0800bfe8       0x34 ..\obj\usb_hcd_int.o
 .text.USB_OTG_USBH_handle_Disconnect_ISR
                0x0800c01c       0x34 ..\obj\usb_hcd_int.o
 .text.USB_OTG_USBH_handle_nptxfempty_ISR
                0x0800c050      0x188 ..\obj\usb_hcd_int.o
 .text.USB_OTG_USBH_handle_ptxfempty_ISR
                0x0800c1d8      0x188 ..\obj\usb_hcd_int.o
 .text.USB_OTG_USBH_handle_port_ISR
                0x0800c360      0x164 ..\obj\usb_hcd_int.o
 .text.USB_OTG_USBH_handle_hc_n_Out_ISR
                0x0800c4c4      0x550 ..\obj\usb_hcd_int.o
 .text.USB_OTG_USBH_handle_hc_n_In_ISR
                0x0800ca14      0x5b0 ..\obj\usb_hcd_int.o
 .text.USB_OTG_USBH_handle_rx_qlvl_ISR
                0x0800cfc4      0x198 ..\obj\usb_hcd_int.o
 .text.USB_OTG_USBH_handle_IncompletePeriodicXfer_ISR
                0x0800d15c       0x4c ..\obj\usb_hcd_int.o
 .text          0x0800d1a8      0x370 c:/program files (x86)/gnu tools arm embedded/5.4 2016q3/bin/../lib/gcc/arm-none-eabi/5.4.1/armv7e-m\libgcc.a(_arm_addsubdf3.o)
                0x0800d1a8                __aeabi_drsub
                0x0800d1b0                __aeabi_dsub
                0x0800d1b0                __subdf3
                0x0800d1b4                __aeabi_dadd
                0x0800d1b4                __adddf3
                0x0800d42c                __floatunsidf
                0x0800d42c                __aeabi_ui2d
                0x0800d44c                __floatsidf
                0x0800d44c                __aeabi_i2d
                0x0800d470                __aeabi_f2d
                0x0800d470                __extendsfdf2
                0x0800d4ac                __floatundidf
                0x0800d4ac                __aeabi_ul2d
                0x0800d4bc                __floatdidf
                0x0800d4bc                __aeabi_l2d
 .text          0x0800d518      0x424 c:/program files (x86)/gnu tools arm embedded/5.4 2016q3/bin/../lib/gcc/arm-none-eabi/5.4.1/armv7e-m\libgcc.a(_arm_muldivdf3.o)
                0x0800d518                __aeabi_dmul
                0x0800d518                __muldf3
                0x0800d76c                __divdf3
                0x0800d76c                __aeabi_ddiv
 .text          0x0800d93c      0x110 c:/program files (x86)/gnu tools arm embedded/5.4 2016q3/bin/../lib/gcc/arm-none-eabi/5.4.1/armv7e-m\libgcc.a(_arm_cmpdf2.o)
                0x0800d93c                __gtdf2
                0x0800d93c                __gedf2
                0x0800d944                __ltdf2
                0x0800d944                __ledf2
                0x0800d94c                __nedf2
                0x0800d94c                __eqdf2
                0x0800d94c                __cmpdf2
                0x0800d9c8                __aeabi_cdrcmple
                0x0800d9d8                __aeabi_cdcmpeq
                0x0800d9d8                __aeabi_cdcmple
                0x0800d9e8                __aeabi_dcmpeq
                0x0800d9fc                __aeabi_dcmplt
                0x0800da10                __aeabi_dcmple
                0x0800da24                __aeabi_dcmpge
                0x0800da38                __aeabi_dcmpgt
 .text._malloc_r
                0x0800da4c      0x570 c:/program files (x86)/gnu tools arm embedded/5.4 2016q3/bin/../lib/gcc/arm-none-eabi/5.4.1/../../../../arm-none-eabi/lib/armv7e-m\libg.a(lib_a-mallocr.o)
                0x0800da4c                _malloc_r
 .text          0x0800dfbc      0x134 c:/program files (x86)/gnu tools arm embedded/5.4 2016q3/bin/../lib/gcc/arm-none-eabi/5.4.1/../../../../arm-none-eabi/lib/armv7e-m\libg.a(lib_a-memcpy.o)
                0x0800dfbc                memcpy
 .text.memmove  0x0800e0f0       0xc8 c:/program files (x86)/gnu tools arm embedded/5.4 2016q3/bin/../lib/gcc/arm-none-eabi/5.4.1/../../../../arm-none-eabi/lib/armv7e-m\libg.a(lib_a-memmove.o)
                0x0800e0f0                memmove
 .text.__malloc_lock
                0x0800e1b8        0x4 c:/program files (x86)/gnu tools arm embedded/5.4 2016q3/bin/../lib/gcc/arm-none-eabi/5.4.1/../../../../arm-none-eabi/lib/armv7e-m\libg.a(lib_a-mlock.o)
                0x0800e1b8                __malloc_lock
 .text.__malloc_unlock
                0x0800e1bc        0x4 c:/program files (x86)/gnu tools arm embedded/5.4 2016q3/bin/../lib/gcc/arm-none-eabi/5.4.1/../../../../arm-none-eabi/lib/armv7e-m\libg.a(lib_a-mlock.o)
                0x0800e1bc                __malloc_unlock
 .text.realloc  0x0800e1c0       0x10 c:/program files (x86)/gnu tools arm embedded/5.4 2016q3/bin/../lib/gcc/arm-none-eabi/5.4.1/../../../../arm-none-eabi/lib/armv7e-m\libg.a(lib_a-realloc.o)
                0x0800e1c0                realloc
 .text._realloc_r
                0x0800e1d0      0x3e0 c:/program files (x86)/gnu tools arm embedded/5.4 2016q3/bin/../lib/gcc/arm-none-eabi/5.4.1/../../../../arm-none-eabi/lib/armv7e-m\libg.a(lib_a-reallocr.o)
                0x0800e1d0                _realloc_r
 .text._sbrk_r  0x0800e5b0       0x24 c:/program files (x86)/gnu tools arm embedded/5.4 2016q3/bin/../lib/gcc/arm-none-eabi/5.4.1/../../../../arm-none-eabi/lib/armv7e-m\libg.a(lib_a-sbrkr.o)
                0x0800e5b0                _sbrk_r
 .text.sprintf  0x0800e5d4       0x4c c:/program files (x86)/gnu tools arm embedded/5.4 2016q3/bin/../lib/gcc/arm-none-eabi/5.4.1/../../../../arm-none-eabi/lib/armv7e-m\libg.a(lib_a-sprintf.o)
                0x0800e5d4                sprintf
 .text.strcpy   0x0800e620       0xbc c:/program files (x86)/gnu tools arm embedded/5.4 2016q3/bin/../lib/gcc/arm-none-eabi/5.4.1/../../../../arm-none-eabi/lib/armv7e-m\libg.a(lib_a-strcpy.o)
                0x0800e620                strcpy
 *fill*         0x0800e6dc       0x24 
 .text          0x0800e700       0xdc c:/program files (x86)/gnu tools arm embedded/5.4 2016q3/bin/../lib/gcc/arm-none-eabi/5.4.1/../../../../arm-none-eabi/lib/armv7e-m\libg.a(lib_a-strlen.o)
                0x0800e700                strlen
 .text._svfprintf_r
                0x0800e7dc     0x16b0 c:/program files (x86)/gnu tools arm embedded/5.4 2016q3/bin/../lib/gcc/arm-none-eabi/5.4.1/../../../../arm-none-eabi/lib/armv7e-m\libg.a(lib_a-svfprintf.o)
                0x0800e7dc                _svfprintf_r
 .text.quorem   0x0800fe8c      0x128 c:/program files (x86)/gnu tools arm embedded/5.4 2016q3/bin/../lib/gcc/arm-none-eabi/5.4.1/../../../../arm-none-eabi/lib/armv7e-m\libg.a(lib_a-dtoa.o)
 *fill*         0x0800ffb4        0x4 
 .text._dtoa_r  0x0800ffb8      0xe58 c:/program files (x86)/gnu tools arm embedded/5.4 2016q3/bin/../lib/gcc/arm-none-eabi/5.4.1/../../../../arm-none-eabi/lib/armv7e-m\libg.a(lib_a-dtoa.o)
                0x0800ffb8                _dtoa_r
 .text._malloc_trim_r
                0x08010e10       0x9c c:/program files (x86)/gnu tools arm embedded/5.4 2016q3/bin/../lib/gcc/arm-none-eabi/5.4.1/../../../../arm-none-eabi/lib/armv7e-m\libg.a(lib_a-freer.o)
                0x08010e10                _malloc_trim_r
 .text._free_r  0x08010eac      0x1d0 c:/program files (x86)/gnu tools arm embedded/5.4 2016q3/bin/../lib/gcc/arm-none-eabi/5.4.1/../../../../arm-none-eabi/lib/armv7e-m\libg.a(lib_a-freer.o)
                0x08010eac                _free_r
 .text._localeconv_r
                0x0801107c       0x1c c:/program files (x86)/gnu tools arm embedded/5.4 2016q3/bin/../lib/gcc/arm-none-eabi/5.4.1/../../../../arm-none-eabi/lib/armv7e-m\libg.a(lib_a-localeconv.o)
                0x0801107c                _localeconv_r
 *fill*         0x08011098        0x8 
 .text          0x080110a0       0xa0 c:/program files (x86)/gnu tools arm embedded/5.4 2016q3/bin/../lib/gcc/arm-none-eabi/5.4.1/../../../../arm-none-eabi/lib/armv7e-m\libg.a(lib_a-memchr.o)
                0x080110a0                memchr
 .text._Balloc  0x08011140       0x4c c:/program files (x86)/gnu tools arm embedded/5.4 2016q3/bin/../lib/gcc/arm-none-eabi/5.4.1/../../../../arm-none-eabi/lib/armv7e-m\libg.a(lib_a-mprec.o)
                0x08011140                _Balloc
 .text._Bfree   0x0801118c       0x14 c:/program files (x86)/gnu tools arm embedded/5.4 2016q3/bin/../lib/gcc/arm-none-eabi/5.4.1/../../../../arm-none-eabi/lib/armv7e-m\libg.a(lib_a-mprec.o)
                0x0801118c                _Bfree
 .text.__multadd
                0x080111a0       0x80 c:/program files (x86)/gnu tools arm embedded/5.4 2016q3/bin/../lib/gcc/arm-none-eabi/5.4.1/../../../../arm-none-eabi/lib/armv7e-m\libg.a(lib_a-mprec.o)
                0x080111a0                __multadd
 .text.__hi0bits
                0x08011220       0x40 c:/program files (x86)/gnu tools arm embedded/5.4 2016q3/bin/../lib/gcc/arm-none-eabi/5.4.1/../../../../arm-none-eabi/lib/armv7e-m\libg.a(lib_a-mprec.o)
                0x08011220                __hi0bits
 .text.__lo0bits
                0x08011260       0x5c c:/program files (x86)/gnu tools arm embedded/5.4 2016q3/bin/../lib/gcc/arm-none-eabi/5.4.1/../../../../arm-none-eabi/lib/armv7e-m\libg.a(lib_a-mprec.o)
                0x08011260                __lo0bits
 .text.__i2b    0x080112bc       0x14 c:/program files (x86)/gnu tools arm embedded/5.4 2016q3/bin/../lib/gcc/arm-none-eabi/5.4.1/../../../../arm-none-eabi/lib/armv7e-m\libg.a(lib_a-mprec.o)
                0x080112bc                __i2b
 .text.__multiply
                0x080112d0      0x130 c:/program files (x86)/gnu tools arm embedded/5.4 2016q3/bin/../lib/gcc/arm-none-eabi/5.4.1/../../../../arm-none-eabi/lib/armv7e-m\libg.a(lib_a-mprec.o)
                0x080112d0                __multiply
 .text.__pow5mult
                0x08011400       0xa0 c:/program files (x86)/gnu tools arm embedded/5.4 2016q3/bin/../lib/gcc/arm-none-eabi/5.4.1/../../../../arm-none-eabi/lib/armv7e-m\libg.a(lib_a-mprec.o)
                0x08011400                __pow5mult
 .text.__lshift
                0x080114a0       0xb0 c:/program files (x86)/gnu tools arm embedded/5.4 2016q3/bin/../lib/gcc/arm-none-eabi/5.4.1/../../../../arm-none-eabi/lib/armv7e-m\libg.a(lib_a-mprec.o)
                0x080114a0                __lshift
 .text.__mcmp   0x08011550       0x40 c:/program files (x86)/gnu tools arm embedded/5.4 2016q3/bin/../lib/gcc/arm-none-eabi/5.4.1/../../../../arm-none-eabi/lib/armv7e-m\libg.a(lib_a-mprec.o)
                0x08011550                __mcmp
 .text.__mdiff  0x08011590      0x114 c:/program files (x86)/gnu tools arm embedded/5.4 2016q3/bin/../lib/gcc/arm-none-eabi/5.4.1/../../../../arm-none-eabi/lib/armv7e-m\libg.a(lib_a-mprec.o)
                0x08011590                __mdiff
 .text.__d2b    0x080116a4       0xb8 c:/program files (x86)/gnu tools arm embedded/5.4 2016q3/bin/../lib/gcc/arm-none-eabi/5.4.1/../../../../arm-none-eabi/lib/armv7e-m\libg.a(lib_a-mprec.o)
                0x080116a4                __d2b
 .text.__ssprint_r
                0x0801175c      0x100 c:/program files (x86)/gnu tools arm embedded/5.4 2016q3/bin/../lib/gcc/arm-none-eabi/5.4.1/../../../../arm-none-eabi/lib/armv7e-m\libg.a(lib_a-svfiprintf.o)
                0x0801175c                __ssprint_r
 .text._calloc_r
                0x0801185c       0x60 c:/program files (x86)/gnu tools arm embedded/5.4 2016q3/bin/../lib/gcc/arm-none-eabi/5.4.1/../../../../arm-none-eabi/lib/armv7e-m\libg.a(lib_a-callocr.o)
                0x0801185c                _calloc_r
 .text.__ascii_mbtowc
                0x080118bc       0x2c c:/program files (x86)/gnu tools arm embedded/5.4 2016q3/bin/../lib/gcc/arm-none-eabi/5.4.1/../../../../arm-none-eabi/lib/armv7e-m\libg.a(lib_a-mbtowc_r.o)
                0x080118bc                __ascii_mbtowc
 .text.memset   0x080118e8       0x9c c:/program files (x86)/gnu tools arm embedded/5.4 2016q3/bin/../lib/gcc/arm-none-eabi/5.4.1/../../../../arm-none-eabi/lib/armv7e-m\libg.a(lib_a-memset.o)
                0x080118e8                memset
 .text.__ascii_wctomb
                0x08011984       0x1c c:/program files (x86)/gnu tools arm embedded/5.4 2016q3/bin/../lib/gcc/arm-none-eabi/5.4.1/../../../../arm-none-eabi/lib/armv7e-m\libg.a(lib_a-wctomb_r.o)
                0x08011984                __ascii_wctomb
 .text          0x080119a0       0x2c c:/program files (x86)/gnu tools arm embedded/5.4 2016q3/bin/../lib/gcc/arm-none-eabi/5.4.1/armv7e-m\libgcc.a(_arm_unorddf2.o)
                0x080119a0                __unorddf2
                0x080119a0                __aeabi_dcmpun
 .text          0x080119cc       0x50 c:/program files (x86)/gnu tools arm embedded/5.4 2016q3/bin/../lib/gcc/arm-none-eabi/5.4.1/armv7e-m\libgcc.a(_arm_fixdfsi.o)
                0x080119cc                __aeabi_d2iz
                0x080119cc                __fixdfsi
 .text          0x08011a1c       0x30 c:/program files (x86)/gnu tools arm embedded/5.4 2016q3/bin/../lib/gcc/arm-none-eabi/5.4.1/armv7e-m\libgcc.a(_aeabi_uldivmod.o)
                0x08011a1c                __aeabi_uldivmod
 .text          0x08011a4c      0x2e4 c:/program files (x86)/gnu tools arm embedded/5.4 2016q3/bin/../lib/gcc/arm-none-eabi/5.4.1/armv7e-m\libgcc.a(_udivmoddi4.o)
                0x08011a4c                __udivmoddi4
 .text          0x08011d30        0x4 c:/program files (x86)/gnu tools arm embedded/5.4 2016q3/bin/../lib/gcc/arm-none-eabi/5.4.1/armv7e-m\libgcc.a(_dvmd_tls.o)
                0x08011d30                __aeabi_idiv0
                0x08011d30                __aeabi_ldiv0
 *(.init)
 *(.fini)
 *crtbegin.o(.ctors)
 *crtbegin?.o(.ctors)
 *(EXCLUDE_FILE(*crtend.o *crtend?.o) .ctors)
 *(SORT(.ctors.*))
 *(.ctors)
 *crtbegin.o(.dtors)
 *crtbegin?.o(.dtors)
 *(EXCLUDE_FILE(*crtend.o *crtend?.o) .dtors)
 *(SORT(.dtors.*))
 *(.dtors)
 *(.rodata*)
 .rodata        0x08011d34      0x24e ..\obj\dqchan.o
 *fill*         0x08011f82        0x2 
 .rodata        0x08011f84       0x68 ..\obj\scalfact.o
 .rodata.str1.4
                0x08011fec        0x7 ..\obj\mp3.o
 *fill*         0x08011ff3        0x1 
 .rodata        0x08011ff4     0x2304 ..\obj\hufftabs.o
                0x08011ff4                xmp3fixpt_quadTabMaxBits
                0x08011ffc                xmp3fixpt_quadTabOffset
                0x08012004                xmp3fixpt_quadTable
                0x08012054                xmp3fixpt_huffTabLookup
                0x08012154                xmp3fixpt_huffTabOffset
                0x080121d4                xmp3fixpt_huffTable
 .rodata        0x080142f8       0x6c ..\obj\imdct.o
 .rodata        0x08014364      0x508 ..\obj\mp3tabs.o
                0x08014364                xmp3fixpt_sfBandTable
                0x08014600                xmp3fixpt_slotTab
                0x08014710                xmp3fixpt_sideBytesTab
                0x0801471c                xmp3fixpt_bitsPerSlotTab
                0x08014724                xmp3fixpt_samplesPerFrameTab
                0x08014738                xmp3fixpt_bitrateTab
                0x08014848                xmp3fixpt_samplerateTab
 .rodata.str1.4
                0x0801486c        0x7 ..\obj\main.o
 .rodata.str1.4
                0x0801486c        0x4 ..\obj\file.o
 .rodata        0x08014870       0x20 ..\obj\menu.o
 .rodata.str1.4
                0x08014890       0x58 ..\obj\menu.o
 .rodata.str1.4
                0x080148e8        0x4 ..\obj\usbh_core.o
 .rodata.str1.4
                0x080148ec       0x11 ..\obj\id3.o
 *fill*         0x080148fd        0x3 
 .rodata        0x08014900      0x86c ..\obj\trigtabs_fixpt.o
                0x08014900                xmp3fixpt_polyCoef
                0x08014d20                xmp3fixpt_coef32
                0x08014d9c                xmp3fixpt_csa
                0x08014ddc                xmp3fixpt_uniqueIDTab
                0x08014de4                xmp3fixpt_ISFIIP
                0x08014df4                xmp3fixpt_ISFMpeg2
                0x08014ef4                xmp3fixpt_ISFMpeg1
                0x08014f2c                xmp3fixpt_imdctWin
 .rodata        0x0801516c        0x3 ..\obj\preamp.o
 *fill*         0x0801516f        0x1 
 .rodata        0x08015170       0xd2 ..\obj\ff.o
 *fill*         0x08015242        0x2 
 .rodata.str1.4
                0x08015244       0x96 ..\obj\ff.o
 *fill*         0x080152da        0x2 
 .rodata        0x080152dc       0xc0 ..\obj\dct32.o
 .rodata.zeroes.7256
                0x0801539c       0x10 c:/program files (x86)/gnu tools arm embedded/5.4 2016q3/bin/../lib/gcc/arm-none-eabi/5.4.1/../../../../arm-none-eabi/lib/armv7e-m\libg.a(lib_a-svfprintf.o)
 .rodata.str1.4
                0x080153ac       0x42 c:/program files (x86)/gnu tools arm embedded/5.4 2016q3/bin/../lib/gcc/arm-none-eabi/5.4.1/../../../../arm-none-eabi/lib/armv7e-m\libg.a(lib_a-svfprintf.o)
 *fill*         0x080153ee        0x2 
 .rodata.blanks.7255
                0x080153f0       0x10 c:/program files (x86)/gnu tools arm embedded/5.4 2016q3/bin/../lib/gcc/arm-none-eabi/5.4.1/../../../../arm-none-eabi/lib/armv7e-m\libg.a(lib_a-svfprintf.o)
 .rodata.str1.4
                0x08015400       0x10 c:/program files (x86)/gnu tools arm embedded/5.4 2016q3/bin/../lib/gcc/arm-none-eabi/5.4.1/../../../../arm-none-eabi/lib/armv7e-m\libg.a(lib_a-dtoa.o)
                                 0x12 (size before relaxing)
 .rodata.__mprec_tens
                0x08015410       0xc8 c:/program files (x86)/gnu tools arm embedded/5.4 2016q3/bin/../lib/gcc/arm-none-eabi/5.4.1/../../../../arm-none-eabi/lib/armv7e-m\libg.a(lib_a-mprec.o)
                0x08015410                __mprec_tens
 .rodata.p05.6085
                0x080154d8        0xc c:/program files (x86)/gnu tools arm embedded/5.4 2016q3/bin/../lib/gcc/arm-none-eabi/5.4.1/../../../../arm-none-eabi/lib/armv7e-m\libg.a(lib_a-mprec.o)
 *fill*         0x080154e4        0x4 
 .rodata.__mprec_bigtens
                0x080154e8       0x28 c:/program files (x86)/gnu tools arm embedded/5.4 2016q3/bin/../lib/gcc/arm-none-eabi/5.4.1/../../../../arm-none-eabi/lib/armv7e-m\libg.a(lib_a-mprec.o)
                0x080154e8                __mprec_bigtens
 .rodata.str1.4
                0x08015510       0x10 c:/program files (x86)/gnu tools arm embedded/5.4 2016q3/bin/../lib/gcc/arm-none-eabi/5.4.1/../../../../arm-none-eabi/lib/armv7e-m\libg.a(lib_a-locale.o)
                                 0x12 (size before relaxing)
 .rodata._ctype_
                0x08015520      0x101 c:/program files (x86)/gnu tools arm embedded/5.4 2016q3/bin/../lib/gcc/arm-none-eabi/5.4.1/../../../../arm-none-eabi/lib/armv7e-m\libg.a(lib_a-ctype_.o)
                0x08015520                _ctype_
 *(.eh_fram e*)

.glue_7         0x08015624        0x0
 .glue_7        0x08015624        0x0 linker stubs

.glue_7t        0x08015624        0x0
 .glue_7t       0x08015624        0x0 linker stubs

.vfp11_veneer   0x08015624        0x0
 .vfp11_veneer  0x08015624        0x0 linker stubs

.v4_bx          0x08015624        0x0
 .v4_bx         0x08015624        0x0 linker stubs

.iplt           0x08015624        0x0
 .iplt          0x08015624        0x0 ..\obj\tm_stm32f4_fatfs.o

.ARM.extab
 *(.ARM.extab* .gnu.linkonce.armextab.*)
                0x08015624                __exidx_start = .

.ARM.exidx      0x08015624        0x8
 *(.ARM.exidx* .gnu.linkonce.armexidx.*)
 .ARM.exidx     0x08015624        0x8 c:/program files (x86)/gnu tools arm embedded/5.4 2016q3/bin/../lib/gcc/arm-none-eabi/5.4.1/armv7e-m\libgcc.a(_udivmoddi4.o)
                0x0801562c                __exidx_end = .
                0x0801562c                __etext = .
                0x0801562c                _sidata = __etext

.rel.dyn        0x0801562c        0x0
 .rel.iplt      0x0801562c        0x0 ..\obj\tm_stm32f4_fatfs.o

.data           0x20000000      0xdb0 load address 0x0801562c
                0x20000000                __data_start__ = .
                0x20000000                _sdata = __data_start__
 *(vtable)
 *(.data*)
 .data          0x20000000        0x2 ..\obj\mp3.o
                0x20000000                Mp3_Status
                0x20000001                loadneeded
 *fill*         0x20000002        0x2 
 .data          0x20000004       0xb4 ..\obj\diskio.o
                0x20000004                FATFS_LowLevelDrivers
 .data          0x200000b8        0x1 ..\obj\fatfs_usb.o
 *fill*         0x200000b9        0x3 
 .data          0x200000bc       0x10 ..\obj\stm32f4xx_rcc.o
 .data          0x200000cc       0x60 ..\obj\tm_stm32f4_usart.o
                0x200000cc                TM_USART1
                0x200000dc                TM_USART2
                0x200000ec                TM_USART3
                0x200000fc                TM_USART6
                0x2000010c                TM_UART5
                0x2000011c                TM_UART4
 .data          0x2000012c        0x1 ..\obj\fatfs_sd.o
 *fill*         0x2000012d        0x3 
 .data          0x20000130       0x10 ..\obj\usbh_msc_core.o
                0x20000130                USBH_MSC_cb
 .data          0x20000140       0x21 ..\obj\menu.o
                0x20000140                SourceStrings
                0x2000014c                MenuStrings
 *fill*         0x20000161        0x3 
 .data          0x20000164       0x10 ..\obj\usbh_core.o
                0x20000164                USBH_HCD_INT_fops
                0x20000168                USBH_HCD_INT_cb
 .data          0x20000174        0x1 ..\obj\usbh_msc_scsi.o
 *fill*         0x20000175        0x3 
 .data          0x20000178       0x14 ..\obj\system_stm32f4xx.o
                0x20000178                SystemCoreClock
                0x2000017c                AHBPrescTable
 .data          0x2000018c        0x1 ..\obj\DMA.o
                0x2000018c                DmaAudioDone
 *fill*         0x2000018d        0x3 
 .data          0x20000190       0x48 ..\obj\usbh_usr.o
                0x20000190                USR_Callbacks
 .data          0x200001d8      0x229 ..\obj\glcd.o
                0x200001d8                LCDPort
                0x200001f8                LCDPin
                0x20000208                fontdata
 *fill*         0x20000401        0x3 
 .data.__malloc_av_
                0x20000404      0x408 c:/program files (x86)/gnu tools arm embedded/5.4 2016q3/bin/../lib/gcc/arm-none-eabi/5.4.1/../../../../arm-none-eabi/lib/armv7e-m\libg.a(lib_a-mallocr.o)
                0x20000404                __malloc_av_
 .data.__malloc_trim_threshold
                0x2000080c        0x4 c:/program files (x86)/gnu tools arm embedded/5.4 2016q3/bin/../lib/gcc/arm-none-eabi/5.4.1/../../../../arm-none-eabi/lib/armv7e-m\libg.a(lib_a-mallocr.o)
                0x2000080c                __malloc_trim_threshold
 .data.__malloc_sbrk_base
                0x20000810        0x4 c:/program files (x86)/gnu tools arm embedded/5.4 2016q3/bin/../lib/gcc/arm-none-eabi/5.4.1/../../../../arm-none-eabi/lib/armv7e-m\libg.a(lib_a-mallocr.o)
                0x20000810                __malloc_sbrk_base
 *fill*         0x20000814        0x4 
 .data.impure_data
                0x20000818      0x428 c:/program files (x86)/gnu tools arm embedded/5.4 2016q3/bin/../lib/gcc/arm-none-eabi/5.4.1/../../../../arm-none-eabi/lib/armv7e-m\libg.a(lib_a-impure.o)
 .data._impure_ptr
                0x20000c40        0x4 c:/program files (x86)/gnu tools arm embedded/5.4 2016q3/bin/../lib/gcc/arm-none-eabi/5.4.1/../../../../arm-none-eabi/lib/armv7e-m\libg.a(lib_a-impure.o)
                0x20000c40                _impure_ptr
 .data.__global_locale
                0x20000c44      0x16c c:/program files (x86)/gnu tools arm embedded/5.4 2016q3/bin/../lib/gcc/arm-none-eabi/5.4.1/../../../../arm-none-eabi/lib/armv7e-m\libg.a(lib_a-locale.o)
                0x20000c44                __global_locale
                0x20000db0                . = ALIGN (0x4)
                [!provide]                PROVIDE (__preinit_array_start, .)
 *(.preinit_array)
                [!provide]                PROVIDE (__preinit_array_end, .)
                0x20000db0                . = ALIGN (0x4)
                [!provide]                PROVIDE (__init_array_start, .)
 *(SORT(.init_array.*))
 *(.init_array)
                [!provide]                PROVIDE (__init_array_end, .)
                0x20000db0                . = ALIGN (0x4)
                [!provide]                PROVIDE (__fini_array_start, .)
 *(SORT(.fini_array.*))
 *(.fini_array)
                [!provide]                PROVIDE (__fini_array_end, .)
 *(.jcr*)
                0x20000db0                . = ALIGN (0x4)
                0x20000db0                __data_end__ = .
                0x20000db0                _edata = __data_end__

.igot.plt       0x20000db0        0x0 load address 0x080163dc
 .igot.plt      0x20000db0        0x0 ..\obj\tm_stm32f4_fatfs.o

.bss            0x20000db0    0x141ac load address 0x080163dc
                0x20000db0                . = ALIGN (0x4)
                0x20000db0                __bss_start__ = .
                0x20000db0                _sbss = __bss_start__
 *(.bss*)
 .bss           0x20000db0       0x20 ..\obj\mp3.o
                0x20000db8                Mp3ActIndex
                0x20000dbc                Mp3TrackChanged
                0x20000dc0                Mp3ActTrack
                0x20000dc4                tMp3Array
                0x20000dc8                Mp3Array
                0x20000dcc                Mp3Count
 .bss           0x20000dd0        0x3 ..\obj\usbh_stdreq.o
 .bss           0x20000dd3        0x1 ..\obj\fatfs_sd.o
 .bss           0x20000dd4        0x2 ..\obj\usbh_msc_core.o
                0x20000dd4                MSCErrorCount
 .bss           0x20000dd6        0x2 ..\obj\bt.o
                0x20000dd6                FlagVolUp
                0x20000dd7                FlagVolDown
 .bss           0x20000dd8       0x2c ..\obj\tm_stm32f4_delay.o
                0x20000dd8                prescaler
                0x20000ddc                TM_Time
                0x20000de0                TM_Time2
                0x20000dfc                TM_DELAY_Initialized
                0x20000e00                TM_TimingDelay
 .bss           0x20000e04       0x31 ..\obj\menu.o
                0x20000e33                x
                0x20000e34                presscnt
 *fill*         0x20000e35        0x1 
 .bss           0x20000e36        0x2 ..\obj\usbh_core.o
 .bss           0x20000e38        0x4 ..\obj\syscalls.o
 .bss           0x20000e3c        0x1 ..\obj\usbh_usr.o
                0x20000e3c                Application
 .bss           0x20000e3d        0x1 ..\obj\tm_stm32f4_usb_msc_host.o
                0x20000e3d                TM_USB_MSCHOST_INT_Initialized
 *fill*         0x20000e3e        0x2 
 .bss           0x20000e40     0x5d08 ..\obj\buffers.o
 .bss           0x20006b48       0x2a ..\obj\ff.o
 *fill*         0x20006b72        0x2 
 .bss           0x20006b74       0x11 ..\obj\usbh_msc_bot.o
 *fill*         0x20006b85        0x3 
 .bss           0x20006b88       0x16 ..\obj\tm_stm32f4_gpio.o
 *fill*         0x20006b9e        0x2 
 .bss.__malloc_max_total_mem
                0x20006ba0        0x4 c:/program files (x86)/gnu tools arm embedded/5.4 2016q3/bin/../lib/gcc/arm-none-eabi/5.4.1/../../../../arm-none-eabi/lib/armv7e-m\libg.a(lib_a-mallocr.o)
                0x20006ba0                __malloc_max_total_mem
 .bss.__malloc_max_sbrked_mem
                0x20006ba4        0x4 c:/program files (x86)/gnu tools arm embedded/5.4 2016q3/bin/../lib/gcc/arm-none-eabi/5.4.1/../../../../arm-none-eabi/lib/armv7e-m\libg.a(lib_a-mallocr.o)
                0x20006ba4                __malloc_max_sbrked_mem
 .bss.__malloc_top_pad
                0x20006ba8        0x4 c:/program files (x86)/gnu tools arm embedded/5.4 2016q3/bin/../lib/gcc/arm-none-eabi/5.4.1/../../../../arm-none-eabi/lib/armv7e-m\libg.a(lib_a-mallocr.o)
                0x20006ba8                __malloc_top_pad
 .bss.__malloc_current_mallinfo
                0x20006bac       0x28 c:/program files (x86)/gnu tools arm embedded/5.4 2016q3/bin/../lib/gcc/arm-none-eabi/5.4.1/../../../../arm-none-eabi/lib/armv7e-m\libg.a(lib_a-mallocr.o)
                0x20006bac                __malloc_current_mallinfo
 *(COMMON)
 COMMON         0x20006bd4     0xd35c ..\obj\mp3.o
                0x20006bd4                mp3_buffer
                0x2000b3d4                SD_Fs
                0x2000b608                USB_Fs
                0x2000b83c                hMP3Decoder
                0x2000b840                audio_help_buff
                0x2000d690                mp3_buffer2
                0x20011e90                act_buff
                0x20011e94                audio_buffer
                0x20013ce4                errbr
                0x20013ce8                bytes_left
                0x20013cec                read_ptr
                0x20013cf0                fil
                0x20013f14                mp3FrameInfo
 COMMON         0x20013f30      0x200 ..\obj\usbh_stdreq.o
                0x20013f30                USBH_CfgDesc
 COMMON         0x20014130       0xc0 ..\obj\tm_stm32f4_usart.o
                0x20014130                TM_UART5_Buffer
                0x20014150                TM_USART6_Buffer
                0x20014170                TM_USART3_Buffer
                0x20014190                TM_USART2_Buffer
                0x200141b0                TM_USART1_Buffer
                0x200141d0                TM_UART4_Buffer
 COMMON         0x200141f0      0x214 ..\obj\usbh_msc_core.o
                0x200141f0                MSC_Machine
                0x200143fc                MSC_Setup
 COMMON         0x20014404        0x8 ..\obj\tm_stm32f4_delay.o
                0x20014404                sys_delay
                0x20014408                mult
 COMMON         0x2001440c      0x410 ..\obj\usbh_msc_scsi.o
                0x2001440c                USBH_DataInBuffer
                0x2001460c                USBH_MSC_Param
                0x2001461c                USBH_DataOutBuffer
 COMMON         0x2001481c      0x6f8 ..\obj\tm_stm32f4_usb_msc_host.o
                0x2001481c                USB_OTG_MSC_Core
                0x20014dc8                TM_USB_MSCHOST_INT_Result
                0x20014dcc                USB_Host
 COMMON         0x20014f14        0x4 ..\obj\preamp.o
                0x20014f14                AudioSettings
 COMMON         0x20014f18       0x40 ..\obj\usbh_msc_bot.o
                0x20014f18                USBH_MSC_CSWData
                0x20014f28                USBH_MSC_BOTXferParam
                0x20014f38                USBH_MSC_CBWData
 COMMON         0x20014f58        0x4 c:/program files (x86)/gnu tools arm embedded/5.4 2016q3/bin/../lib/gcc/arm-none-eabi/5.4.1/../../../../arm-none-eabi/lib/armv7e-m\libg.a(lib_a-reent.o)
                0x20014f58                errno
                0x20014f5c                . = ALIGN (0x4)
                0x20014f5c                __bss_end__ = .
                0x20014f5c                _ebss = __bss_end__

.heap           0x20014f5c        0x0
                0x20014f5c                __end__ = .
                0x20014f5c                _end = __end__
                0x20014f5c                end = __end__
 *(.heap*)
                0x20014f5c                __HeapLimit = .

.co_stack       0x20014f5c      0x804 load address 0x0802a588
                0x20014f60                . = ALIGN (0x8)
 *fill*         0x20014f5c        0x4 
 *(.co_stack .co_stack.*)
 .co_stack      0x20014f60      0x800 ..\obj\startup_stm32f4xx.o
                0x20014f60                pulStack
                0x20020000                __StackTop = (ORIGIN (ram) + LENGTH (ram))
                0x2001f7fc                __StackLimit = (__StackTop - SIZEOF (.co_stack))
                [!provide]                PROVIDE (__stack, __StackTop)
                0x00000001                ASSERT ((__StackLimit >= __HeapLimit), region ram  overflowed with stack)
LOAD ..\obj\tm_stm32f4_fatfs.o
LOAD ..\obj\unicode.o
LOAD ..\obj\stm32f4xx_syscfg.o
LOAD ..\obj\usb_core.o
LOAD ..\obj\dqchan.o
LOAD ..\obj\scalfact.o
LOAD ..\obj\pcm.o
LOAD ..\obj\i2c.o
LOAD ..\obj\mp3.o
LOAD ..\obj\bitstream.o
LOAD ..\obj\dequant.o
LOAD ..\obj\tm_stm32f4_exti.o
LOAD ..\obj\hufftabs.o
LOAD ..\obj\imdct.o
LOAD ..\obj\timer.o
LOAD ..\obj\usbh_hcs.o
LOAD ..\obj\stm32f4xx_usart.o
LOAD ..\obj\usbh_stdreq.o
LOAD ..\obj\mp3tabs.o
LOAD ..\obj\str.o
LOAD ..\obj\subband.o
LOAD ..\obj\diskio.o
LOAD ..\obj\startup_stm32f4xx.o
LOAD ..\obj\fatfs_usb.o
LOAD ..\obj\mp3dec.o
LOAD ..\obj\main.o
LOAD ..\obj\stm32f4xx_rcc.o
LOAD ..\obj\tm_stm32f4_usart.o
LOAD ..\obj\tm_stm32f4_rotary_encoder.o
LOAD ..\obj\fatfs_sd.o
LOAD ..\obj\usbh_msc_core.o
LOAD ..\obj\bt.o
LOAD ..\obj\gpio.o
LOAD ..\obj\tm_stm32f4_delay.o
LOAD ..\obj\file.o
LOAD ..\obj\syscall.o
LOAD ..\obj\tm_stm32f4_spi.o
LOAD ..\obj\menu.o
LOAD ..\obj\usbh_core.o
LOAD ..\obj\stm32f4xx_gpio.o
LOAD ..\obj\id3.o
LOAD ..\obj\usbh_msc_scsi.o
LOAD ..\obj\system_stm32f4xx.o
LOAD ..\obj\DMA.o
LOAD ..\obj\syscalls.o
LOAD ..\obj\stm32f4xx_dma.o
LOAD ..\obj\usbh_usr.o
LOAD ..\obj\i2s.o
LOAD ..\obj\usb_bsp.o
LOAD ..\obj\tm_stm32f4_usb_msc_host.o
LOAD ..\obj\stproc.o
LOAD ..\obj\huffman.o
LOAD ..\obj\trigtabs_fixpt.o
LOAD ..\obj\preamp.o
LOAD ..\obj\buffers.o
LOAD ..\obj\ff.o
LOAD ..\obj\usb_hcd.o
LOAD ..\obj\usbh_msc_bot.o
LOAD ..\obj\stm32f4xx_spi.o
LOAD ..\obj\dct32.o
LOAD ..\obj\stm32f4xx_i2c.o
LOAD ..\obj\stm32f4xx_exti.o
LOAD ..\obj\usbh_ioreq.o
LOAD ..\obj\misc.o
LOAD ..\obj\glcd.o
LOAD ..\obj\tm_stm32f4_gpio.o
LOAD ..\obj\polyphase.o
LOAD ..\obj\tm_stm32f4_timer_properties.o
LOAD ..\obj\stm32f4xx_tim.o
LOAD ..\obj\usb_hcd_int.o
START GROUP
LOAD c:/program files (x86)/gnu tools arm embedded/5.4 2016q3/bin/../lib/gcc/arm-none-eabi/5.4.1/armv7e-m\libgcc.a
LOAD c:/program files (x86)/gnu tools arm embedded/5.4 2016q3/bin/../lib/gcc/arm-none-eabi/5.4.1/../../../../arm-none-eabi/lib/armv7e-m\libg.a
LOAD c:/program files (x86)/gnu tools arm embedded/5.4 2016q3/bin/../lib/gcc/arm-none-eabi/5.4.1/../../../../arm-none-eabi/lib/armv7e-m\libc.a
END GROUP
OUTPUT(AmpNew.elf elf32-littlearm)

.debug_info     0x00000000    0x35cfb
 .debug_info    0x00000000     0x21af ..\obj\usb_core.o
 .debug_info    0x000021af      0x963 ..\obj\dqchan.o
 .debug_info    0x00002b12      0xbc4 ..\obj\scalfact.o
 .debug_info    0x000036d6      0x4aa ..\obj\i2c.o
 .debug_info    0x00003b80      0xa16 ..\obj\mp3.o
 .debug_info    0x00004596      0xb1e ..\obj\bitstream.o
 .debug_info    0x000050b4      0x8c5 ..\obj\dequant.o
 .debug_info    0x00005979      0xadf ..\obj\tm_stm32f4_exti.o
 .debug_info    0x00006458      0x1d2 ..\obj\hufftabs.o
 .debug_info    0x0000662a     0x2fd1 ..\obj\imdct.o
 .debug_info    0x000095fb      0x98c ..\obj\timer.o
 .debug_info    0x00009f87      0xb1d ..\obj\usbh_hcs.o
 .debug_info    0x0000aaa4      0xb2b ..\obj\stm32f4xx_usart.o
 .debug_info    0x0000b5cf     0x1a8c ..\obj\usbh_stdreq.o
 .debug_info    0x0000d05b      0x1e0 ..\obj\mp3tabs.o
 .debug_info    0x0000d23b      0x129 ..\obj\str.o
 .debug_info    0x0000d364      0x491 ..\obj\subband.o
 .debug_info    0x0000d7f5      0x8ff ..\obj\diskio.o
 .debug_info    0x0000e0f4      0x104 ..\obj\startup_stm32f4xx.o
 .debug_info    0x0000e1f8     0x155f ..\obj\fatfs_usb.o
 .debug_info    0x0000f757      0x959 ..\obj\mp3dec.o
 .debug_info    0x000100b0      0x4bb ..\obj\main.o
 .debug_info    0x0001056b      0xca2 ..\obj\stm32f4xx_rcc.o
 .debug_info    0x0001120d     0x17b7 ..\obj\tm_stm32f4_usart.o
 .debug_info    0x000129c4      0x462 ..\obj\tm_stm32f4_rotary_encoder.o
 .debug_info    0x00012e26     0x10ca ..\obj\fatfs_sd.o
 .debug_info    0x00013ef0     0x181a ..\obj\usbh_msc_core.o
 .debug_info    0x0001570a      0x23c ..\obj\bt.o
 .debug_info    0x00015946      0x5c0 ..\obj\gpio.o
 .debug_info    0x00015f06      0xacf ..\obj\tm_stm32f4_delay.o
 .debug_info    0x000169d5      0x721 ..\obj\file.o
 .debug_info    0x000170f6      0xbe4 ..\obj\tm_stm32f4_spi.o
 .debug_info    0x00017cda     0x117d ..\obj\menu.o
 .debug_info    0x00018e57     0x1bad ..\obj\usbh_core.o
 .debug_info    0x0001aa04      0x7db ..\obj\stm32f4xx_gpio.o
 .debug_info    0x0001b1df      0x6c0 ..\obj\id3.o
 .debug_info    0x0001b89f      0xec2 ..\obj\usbh_msc_scsi.o
 .debug_info    0x0001c761      0x5ea ..\obj\system_stm32f4xx.o
 .debug_info    0x0001cd4b      0x749 ..\obj\DMA.o
 .debug_info    0x0001d494      0x457 ..\obj\syscalls.o
 .debug_info    0x0001d8eb      0x741 ..\obj\stm32f4xx_dma.o
 .debug_info    0x0001e02c      0x66f ..\obj\usbh_usr.o
 .debug_info    0x0001e69b      0x6ab ..\obj\i2s.o
 .debug_info    0x0001ed46     0x10c7 ..\obj\usb_bsp.o
 .debug_info    0x0001fe0d     0x137b ..\obj\tm_stm32f4_usb_msc_host.o
 .debug_info    0x00021188      0xd1a ..\obj\stproc.o
 .debug_info    0x00021ea2      0xbbe ..\obj\huffman.o
 .debug_info    0x00022a60      0x1ce ..\obj\trigtabs_fixpt.o
 .debug_info    0x00022c2e      0x85c ..\obj\preamp.o
 .debug_info    0x0002348a      0x9c2 ..\obj\buffers.o
 .debug_info    0x00023e4c     0x3973 ..\obj\ff.o
 .debug_info    0x000277bf      0xd56 ..\obj\usb_hcd.o
 .debug_info    0x00028515     0x182d ..\obj\usbh_msc_bot.o
 .debug_info    0x00029d42      0xbbe ..\obj\stm32f4xx_spi.o
 .debug_info    0x0002a900      0xbdb ..\obj\dct32.o
 .debug_info    0x0002b4db      0xbb6 ..\obj\stm32f4xx_i2c.o
 .debug_info    0x0002c091     0x1628 ..\obj\usbh_ioreq.o
 .debug_info    0x0002d6b9      0x55c ..\obj\misc.o
 .debug_info    0x0002dc15      0x86b ..\obj\glcd.o
 .debug_info    0x0002e480      0x919 ..\obj\tm_stm32f4_gpio.o
 .debug_info    0x0002ed99     0x2c78 ..\obj\polyphase.o
 .debug_info    0x00031a11     0x21ba ..\obj\stm32f4xx_tim.o
 .debug_info    0x00033bcb     0x2130 ..\obj\usb_hcd_int.o

.debug_abbrev   0x00000000     0x7ad7
 .debug_abbrev  0x00000000      0x38f ..\obj\usb_core.o
 .debug_abbrev  0x0000038f      0x1fd ..\obj\dqchan.o
 .debug_abbrev  0x0000058c      0x1fc ..\obj\scalfact.o
 .debug_abbrev  0x00000788      0x147 ..\obj\i2c.o
 .debug_abbrev  0x000008cf      0x297 ..\obj\mp3.o
 .debug_abbrev  0x00000b66      0x299 ..\obj\bitstream.o
 .debug_abbrev  0x00000dff      0x1d9 ..\obj\dequant.o
 .debug_abbrev  0x00000fd8      0x1f0 ..\obj\tm_stm32f4_exti.o
 .debug_abbrev  0x000011c8       0xad ..\obj\hufftabs.o
 .debug_abbrev  0x00001275      0x360 ..\obj\imdct.o
 .debug_abbrev  0x000015d5      0x169 ..\obj\timer.o
 .debug_abbrev  0x0000173e      0x202 ..\obj\usbh_hcs.o
 .debug_abbrev  0x00001940      0x1b9 ..\obj\stm32f4xx_usart.o
 .debug_abbrev  0x00001af9      0x360 ..\obj\usbh_stdreq.o
 .debug_abbrev  0x00001e59       0x79 ..\obj\mp3tabs.o
 .debug_abbrev  0x00001ed2       0xb7 ..\obj\str.o
 .debug_abbrev  0x00001f89      0x148 ..\obj\subband.o
 .debug_abbrev  0x000020d1      0x206 ..\obj\diskio.o
 .debug_abbrev  0x000022d7       0xdc ..\obj\startup_stm32f4xx.o
 .debug_abbrev  0x000023b3      0x28f ..\obj\fatfs_usb.o
 .debug_abbrev  0x00002642      0x295 ..\obj\mp3dec.o
 .debug_abbrev  0x000028d7      0x155 ..\obj\main.o
 .debug_abbrev  0x00002a2c      0x20b ..\obj\stm32f4xx_rcc.o
 .debug_abbrev  0x00002c37      0x282 ..\obj\tm_stm32f4_usart.o
 .debug_abbrev  0x00002eb9      0x17b ..\obj\tm_stm32f4_rotary_encoder.o
 .debug_abbrev  0x00003034      0x36a ..\obj\fatfs_sd.o
 .debug_abbrev  0x0000339e      0x33b ..\obj\usbh_msc_core.o
 .debug_abbrev  0x000036d9      0x10f ..\obj\bt.o
 .debug_abbrev  0x000037e8      0x147 ..\obj\gpio.o
 .debug_abbrev  0x0000392f      0x31b ..\obj\tm_stm32f4_delay.o
 .debug_abbrev  0x00003c4a      0x1b8 ..\obj\file.o
 .debug_abbrev  0x00003e02      0x209 ..\obj\tm_stm32f4_spi.o
 .debug_abbrev  0x0000400b      0x2d2 ..\obj\menu.o
 .debug_abbrev  0x000042dd      0x329 ..\obj\usbh_core.o
 .debug_abbrev  0x00004606      0x1e0 ..\obj\stm32f4xx_gpio.o
 .debug_abbrev  0x000047e6      0x151 ..\obj\id3.o
 .debug_abbrev  0x00004937      0x222 ..\obj\usbh_msc_scsi.o
 .debug_abbrev  0x00004b59      0x161 ..\obj\system_stm32f4xx.o
 .debug_abbrev  0x00004cba      0x1bf ..\obj\DMA.o
 .debug_abbrev  0x00004e79       0xf4 ..\obj\syscalls.o
 .debug_abbrev  0x00004f6d      0x175 ..\obj\stm32f4xx_dma.o
 .debug_abbrev  0x000050e2      0x15d ..\obj\usbh_usr.o
 .debug_abbrev  0x0000523f      0x141 ..\obj\i2s.o
 .debug_abbrev  0x00005380      0x274 ..\obj\usb_bsp.o
 .debug_abbrev  0x000055f4      0x259 ..\obj\tm_stm32f4_usb_msc_host.o
 .debug_abbrev  0x0000584d      0x1c6 ..\obj\stproc.o
 .debug_abbrev  0x00005a13      0x23c ..\obj\huffman.o
 .debug_abbrev  0x00005c4f       0x68 ..\obj\trigtabs_fixpt.o
 .debug_abbrev  0x00005cb7      0x1b6 ..\obj\preamp.o
 .debug_abbrev  0x00005e6d      0x1bd ..\obj\buffers.o
 .debug_abbrev  0x0000602a      0x2c9 ..\obj\ff.o
 .debug_abbrev  0x000062f3      0x1e6 ..\obj\usb_hcd.o
 .debug_abbrev  0x000064d9      0x295 ..\obj\usbh_msc_bot.o
 .debug_abbrev  0x0000676e      0x1ad ..\obj\stm32f4xx_spi.o
 .debug_abbrev  0x0000691b      0x150 ..\obj\dct32.o
 .debug_abbrev  0x00006a6b      0x1c8 ..\obj\stm32f4xx_i2c.o
 .debug_abbrev  0x00006c33      0x284 ..\obj\usbh_ioreq.o
 .debug_abbrev  0x00006eb7      0x156 ..\obj\misc.o
 .debug_abbrev  0x0000700d      0x1ea ..\obj\glcd.o
 .debug_abbrev  0x000071f7      0x1a9 ..\obj\tm_stm32f4_gpio.o
 .debug_abbrev  0x000073a0      0x1fc ..\obj\polyphase.o
 .debug_abbrev  0x0000759c      0x26e ..\obj\stm32f4xx_tim.o
 .debug_abbrev  0x0000780a      0x2cd ..\obj\usb_hcd_int.o

.debug_loc      0x00000000    0x2114b
 .debug_loc     0x00000000      0xc58 ..\obj\usb_core.o
 .debug_loc     0x00000c58      0xbfa ..\obj\dqchan.o
 .debug_loc     0x00001852     0x10a3 ..\obj\scalfact.o
 .debug_loc     0x000028f5       0xdc ..\obj\i2c.o
 .debug_loc     0x000029d1      0x308 ..\obj\mp3.o
 .debug_loc     0x00002cd9      0x6ef ..\obj\bitstream.o
 .debug_loc     0x000033c8      0x273 ..\obj\dequant.o
 .debug_loc     0x0000363b      0x20d ..\obj\tm_stm32f4_exti.o
 .debug_loc     0x00003848     0x43cf ..\obj\imdct.o
 .debug_loc     0x00007c17       0x6e ..\obj\timer.o
 .debug_loc     0x00007c85      0x26d ..\obj\usbh_hcs.o
 .debug_loc     0x00007ef2      0x7d4 ..\obj\stm32f4xx_usart.o
 .debug_loc     0x000086c6      0x872 ..\obj\usbh_stdreq.o
 .debug_loc     0x00008f38      0x1eb ..\obj\str.o
 .debug_loc     0x00009123      0x173 ..\obj\subband.o
 .debug_loc     0x00009296      0x4b5 ..\obj\diskio.o
 .debug_loc     0x0000974b       0x2b ..\obj\startup_stm32f4xx.o
 .debug_loc     0x00009776      0x38f ..\obj\fatfs_usb.o
 .debug_loc     0x00009b05      0x79b ..\obj\mp3dec.o
 .debug_loc     0x0000a2a0      0xa7c ..\obj\stm32f4xx_rcc.o
 .debug_loc     0x0000ad1c      0xa78 ..\obj\tm_stm32f4_usart.o
 .debug_loc     0x0000b794       0xfe ..\obj\tm_stm32f4_rotary_encoder.o
 .debug_loc     0x0000b892      0xf45 ..\obj\fatfs_sd.o
 .debug_loc     0x0000c7d7      0x4eb ..\obj\usbh_msc_core.o
 .debug_loc     0x0000ccc2      0x245 ..\obj\tm_stm32f4_delay.o
 .debug_loc     0x0000cf07      0x1a2 ..\obj\file.o
 .debug_loc     0x0000d0a9      0x686 ..\obj\tm_stm32f4_spi.o
 .debug_loc     0x0000d72f      0x21f ..\obj\menu.o
 .debug_loc     0x0000d94e      0x637 ..\obj\usbh_core.o
 .debug_loc     0x0000df85      0x2d2 ..\obj\stm32f4xx_gpio.o
 .debug_loc     0x0000e257      0x3fc ..\obj\id3.o
 .debug_loc     0x0000e653      0x46c ..\obj\usbh_msc_scsi.o
 .debug_loc     0x0000eabf      0x11b ..\obj\system_stm32f4xx.o
 .debug_loc     0x0000ebda       0x58 ..\obj\DMA.o
 .debug_loc     0x0000ec32      0x113 ..\obj\syscalls.o
 .debug_loc     0x0000ed45      0x48b ..\obj\stm32f4xx_dma.o
 .debug_loc     0x0000f1d0      0x12e ..\obj\usb_bsp.o
 .debug_loc     0x0000f2fe     0x1a0d ..\obj\stproc.o
 .debug_loc     0x00010d0b     0x131a ..\obj\huffman.o
 .debug_loc     0x00012025      0x3af ..\obj\preamp.o
 .debug_loc     0x000123d4       0x7d ..\obj\buffers.o
 .debug_loc     0x00012451     0x55a2 ..\obj\ff.o
 .debug_loc     0x000179f3      0x239 ..\obj\usb_hcd.o
 .debug_loc     0x00017c2c      0x439 ..\obj\usbh_msc_bot.o
 .debug_loc     0x00018065      0x69e ..\obj\stm32f4xx_spi.o
 .debug_loc     0x00018703     0x1b45 ..\obj\dct32.o
 .debug_loc     0x0001a248      0x728 ..\obj\stm32f4xx_i2c.o
 .debug_loc     0x0001a970      0x6a1 ..\obj\usbh_ioreq.o
 .debug_loc     0x0001b011      0x18e ..\obj\misc.o
 .debug_loc     0x0001b19f      0x487 ..\obj\glcd.o
 .debug_loc     0x0001b626      0x585 ..\obj\tm_stm32f4_gpio.o
 .debug_loc     0x0001bbab     0x30a0 ..\obj\polyphase.o
 .debug_loc     0x0001ec4b     0x1c12 ..\obj\stm32f4xx_tim.o
 .debug_loc     0x0002085d      0x8ee ..\obj\usb_hcd_int.o

.debug_aranges  0x00000000     0x1b68
 .debug_aranges
                0x00000000       0xf8 ..\obj\usb_core.o
 .debug_aranges
                0x000000f8       0x28 ..\obj\dqchan.o
 .debug_aranges
                0x00000120       0x20 ..\obj\scalfact.o
 .debug_aranges
                0x00000140       0x38 ..\obj\i2c.o
 .debug_aranges
                0x00000178       0x60 ..\obj\mp3.o
 .debug_aranges
                0x000001d8       0x48 ..\obj\bitstream.o
 .debug_aranges
                0x00000220       0x20 ..\obj\dequant.o
 .debug_aranges
                0x00000240       0x68 ..\obj\tm_stm32f4_exti.o
 .debug_aranges
                0x000002a8       0x18 ..\obj\hufftabs.o
 .debug_aranges
                0x000002c0       0x30 ..\obj\imdct.o
 .debug_aranges
                0x000002f0       0x50 ..\obj\timer.o
 .debug_aranges
                0x00000340       0x40 ..\obj\usbh_hcs.o
 .debug_aranges
                0x00000380      0x100 ..\obj\stm32f4xx_usart.o
 .debug_aranges
                0x00000480       0x60 ..\obj\usbh_stdreq.o
 .debug_aranges
                0x000004e0       0x18 ..\obj\mp3tabs.o
 .debug_aranges
                0x000004f8       0x38 ..\obj\str.o
 .debug_aranges
                0x00000530       0x20 ..\obj\subband.o
 .debug_aranges
                0x00000550      0x118 ..\obj\diskio.o
 .debug_aranges
                0x00000668       0x28 ..\obj\startup_stm32f4xx.o
 .debug_aranges
                0x00000690       0x40 ..\obj\fatfs_usb.o
 .debug_aranges
                0x000006d0       0x50 ..\obj\mp3dec.o
 .debug_aranges
                0x00000720       0x20 ..\obj\main.o
 .debug_aranges
                0x00000740      0x178 ..\obj\stm32f4xx_rcc.o
 .debug_aranges
                0x000008b8       0xf8 ..\obj\tm_stm32f4_usart.o
 .debug_aranges
                0x000009b0       0x38 ..\obj\tm_stm32f4_rotary_encoder.o
 .debug_aranges
                0x000009e8       0x88 ..\obj\fatfs_sd.o
 .debug_aranges
                0x00000a70       0x40 ..\obj\usbh_msc_core.o
 .debug_aranges
                0x00000ab0       0x20 ..\obj\bt.o
 .debug_aranges
                0x00000ad0       0x30 ..\obj\gpio.o
 .debug_aranges
                0x00000b00       0x70 ..\obj\tm_stm32f4_delay.o
 .debug_aranges
                0x00000b70       0x28 ..\obj\file.o
 .debug_aranges
                0x00000b98       0x88 ..\obj\tm_stm32f4_spi.o
 .debug_aranges
                0x00000c20       0x90 ..\obj\menu.o
 .debug_aranges
                0x00000cb0       0x58 ..\obj\usbh_core.o
 .debug_aranges
                0x00000d08       0x88 ..\obj\stm32f4xx_gpio.o
 .debug_aranges
                0x00000d90       0x28 ..\obj\id3.o
 .debug_aranges
                0x00000db8       0x48 ..\obj\usbh_msc_scsi.o
 .debug_aranges
                0x00000e00       0x28 ..\obj\system_stm32f4xx.o
 .debug_aranges
                0x00000e28       0x30 ..\obj\DMA.o
 .debug_aranges
                0x00000e58       0x60 ..\obj\syscalls.o
 .debug_aranges
                0x00000eb8       0xb0 ..\obj\stm32f4xx_dma.o
 .debug_aranges
                0x00000f68       0xa8 ..\obj\usbh_usr.o
 .debug_aranges
                0x00001010       0x28 ..\obj\i2s.o
 .debug_aranges
                0x00001038       0x58 ..\obj\usb_bsp.o
 .debug_aranges
                0x00001090       0x38 ..\obj\tm_stm32f4_usb_msc_host.o
 .debug_aranges
                0x000010c8       0x30 ..\obj\stproc.o
 .debug_aranges
                0x000010f8       0x20 ..\obj\huffman.o
 .debug_aranges
                0x00001118       0x18 ..\obj\trigtabs_fixpt.o
 .debug_aranges
                0x00001130       0x50 ..\obj\preamp.o
 .debug_aranges
                0x00001180       0x30 ..\obj\buffers.o
 .debug_aranges
                0x000011b0      0x1d8 ..\obj\ff.o
 .debug_aranges
                0x00001388       0x68 ..\obj\usb_hcd.o
 .debug_aranges
                0x000013f0       0x38 ..\obj\usbh_msc_bot.o
 .debug_aranges
                0x00001428       0xe0 ..\obj\stm32f4xx_spi.o
 .debug_aranges
                0x00001508       0x20 ..\obj\dct32.o
 .debug_aranges
                0x00001528      0x120 ..\obj\stm32f4xx_i2c.o
 .debug_aranges
                0x00001648       0x68 ..\obj\usbh_ioreq.o
 .debug_aranges
                0x000016b0       0x40 ..\obj\misc.o
 .debug_aranges
                0x000016f0       0x60 ..\obj\glcd.o
 .debug_aranges
                0x00001750       0x98 ..\obj\tm_stm32f4_gpio.o
 .debug_aranges
                0x000017e8       0x28 ..\obj\polyphase.o
 .debug_aranges
                0x00001810      0x2e8 ..\obj\stm32f4xx_tim.o
 .debug_aranges
                0x00001af8       0x70 ..\obj\usb_hcd_int.o

.debug_ranges   0x00000000     0x1ac8
 .debug_ranges  0x00000000       0xe8 ..\obj\usb_core.o
 .debug_ranges  0x000000e8       0x30 ..\obj\dqchan.o
 .debug_ranges  0x00000118       0x48 ..\obj\scalfact.o
 .debug_ranges  0x00000160       0x28 ..\obj\i2c.o
 .debug_ranges  0x00000188       0x50 ..\obj\mp3.o
 .debug_ranges  0x000001d8       0x38 ..\obj\bitstream.o
 .debug_ranges  0x00000210       0x10 ..\obj\dequant.o
 .debug_ranges  0x00000220       0x70 ..\obj\tm_stm32f4_exti.o
 .debug_ranges  0x00000290       0xb8 ..\obj\imdct.o
 .debug_ranges  0x00000348       0x40 ..\obj\timer.o
 .debug_ranges  0x00000388       0x48 ..\obj\usbh_hcs.o
 .debug_ranges  0x000003d0       0xf0 ..\obj\stm32f4xx_usart.o
 .debug_ranges  0x000004c0       0xb0 ..\obj\usbh_stdreq.o
 .debug_ranges  0x00000570       0x28 ..\obj\str.o
 .debug_ranges  0x00000598       0x10 ..\obj\subband.o
 .debug_ranges  0x000005a8      0x108 ..\obj\diskio.o
 .debug_ranges  0x000006b0       0x18 ..\obj\startup_stm32f4xx.o
 .debug_ranges  0x000006c8       0x30 ..\obj\fatfs_usb.o
 .debug_ranges  0x000006f8       0x58 ..\obj\mp3dec.o
 .debug_ranges  0x00000750       0x10 ..\obj\main.o
 .debug_ranges  0x00000760      0x168 ..\obj\stm32f4xx_rcc.o
 .debug_ranges  0x000008c8       0xe8 ..\obj\tm_stm32f4_usart.o
 .debug_ranges  0x000009b0       0x28 ..\obj\tm_stm32f4_rotary_encoder.o
 .debug_ranges  0x000009d8       0xf8 ..\obj\fatfs_sd.o
 .debug_ranges  0x00000ad0       0x30 ..\obj\usbh_msc_core.o
 .debug_ranges  0x00000b00       0x10 ..\obj\bt.o
 .debug_ranges  0x00000b10       0x20 ..\obj\gpio.o
 .debug_ranges  0x00000b30       0x60 ..\obj\tm_stm32f4_delay.o
 .debug_ranges  0x00000b90       0x18 ..\obj\file.o
 .debug_ranges  0x00000ba8       0x78 ..\obj\tm_stm32f4_spi.o
 .debug_ranges  0x00000c20       0x80 ..\obj\menu.o
 .debug_ranges  0x00000ca0       0x48 ..\obj\usbh_core.o
 .debug_ranges  0x00000ce8       0x78 ..\obj\stm32f4xx_gpio.o
 .debug_ranges  0x00000d60       0x68 ..\obj\id3.o
 .debug_ranges  0x00000dc8       0x38 ..\obj\usbh_msc_scsi.o
 .debug_ranges  0x00000e00       0x18 ..\obj\system_stm32f4xx.o
 .debug_ranges  0x00000e18       0x20 ..\obj\DMA.o
 .debug_ranges  0x00000e38       0x50 ..\obj\syscalls.o
 .debug_ranges  0x00000e88       0xa0 ..\obj\stm32f4xx_dma.o
 .debug_ranges  0x00000f28       0x98 ..\obj\usbh_usr.o
 .debug_ranges  0x00000fc0       0x18 ..\obj\i2s.o
 .debug_ranges  0x00000fd8       0x48 ..\obj\usb_bsp.o
 .debug_ranges  0x00001020       0x28 ..\obj\tm_stm32f4_usb_msc_host.o
 .debug_ranges  0x00001048       0x20 ..\obj\stproc.o
 .debug_ranges  0x00001068       0x68 ..\obj\huffman.o
 .debug_ranges  0x000010d0       0x40 ..\obj\preamp.o
 .debug_ranges  0x00001110       0x20 ..\obj\buffers.o
 .debug_ranges  0x00001130      0x230 ..\obj\ff.o
 .debug_ranges  0x00001360       0x58 ..\obj\usb_hcd.o
 .debug_ranges  0x000013b8       0x28 ..\obj\usbh_msc_bot.o
 .debug_ranges  0x000013e0       0xd0 ..\obj\stm32f4xx_spi.o
 .debug_ranges  0x000014b0       0x40 ..\obj\dct32.o
 .debug_ranges  0x000014f0      0x110 ..\obj\stm32f4xx_i2c.o
 .debug_ranges  0x00001600       0x58 ..\obj\usbh_ioreq.o
 .debug_ranges  0x00001658       0x30 ..\obj\misc.o
 .debug_ranges  0x00001688       0x50 ..\obj\glcd.o
 .debug_ranges  0x000016d8       0x88 ..\obj\tm_stm32f4_gpio.o
 .debug_ranges  0x00001760       0x30 ..\obj\polyphase.o
 .debug_ranges  0x00001790      0x2d8 ..\obj\stm32f4xx_tim.o
 .debug_ranges  0x00001a68       0x60 ..\obj\usb_hcd_int.o

.debug_line     0x00000000     0xccd6
 .debug_line    0x00000000      0x50d ..\obj\usb_core.o
 .debug_line    0x0000050d      0x1fc ..\obj\dqchan.o
 .debug_line    0x00000709      0x192 ..\obj\scalfact.o
 .debug_line    0x0000089b      0x249 ..\obj\i2c.o
 .debug_line    0x00000ae4      0x330 ..\obj\mp3.o
 .debug_line    0x00000e14      0x25a ..\obj\bitstream.o
 .debug_line    0x0000106e      0x171 ..\obj\dequant.o
 .debug_line    0x000011df      0x31f ..\obj\tm_stm32f4_exti.o
 .debug_line    0x000014fe       0x62 ..\obj\hufftabs.o
 .debug_line    0x00001560      0x64f ..\obj\imdct.o
 .debug_line    0x00001baf      0x280 ..\obj\timer.o
 .debug_line    0x00001e2f      0x20c ..\obj\usbh_hcs.o
 .debug_line    0x0000203b      0x473 ..\obj\stm32f4xx_usart.o
 .debug_line    0x000024ae      0x34c ..\obj\usbh_stdreq.o
 .debug_line    0x000027fa       0x8b ..\obj\mp3tabs.o
 .debug_line    0x00002885       0xaa ..\obj\str.o
 .debug_line    0x0000292f      0x120 ..\obj\subband.o
 .debug_line    0x00002a4f      0x426 ..\obj\diskio.o
 .debug_line    0x00002e75       0x90 ..\obj\startup_stm32f4xx.o
 .debug_line    0x00002f05      0x32c ..\obj\fatfs_usb.o
 .debug_line    0x00003231      0x273 ..\obj\mp3dec.o
 .debug_line    0x000034a4      0x255 ..\obj\main.o
 .debug_line    0x000036f9      0x55b ..\obj\stm32f4xx_rcc.o
 .debug_line    0x00003c54      0x51f ..\obj\tm_stm32f4_usart.o
 .debug_line    0x00004173      0x244 ..\obj\tm_stm32f4_rotary_encoder.o
 .debug_line    0x000043b7      0x651 ..\obj\fatfs_sd.o
 .debug_line    0x00004a08      0x313 ..\obj\usbh_msc_core.o
 .debug_line    0x00004d1b      0x1bc ..\obj\bt.o
 .debug_line    0x00004ed7      0x25a ..\obj\gpio.o
 .debug_line    0x00005131      0x36c ..\obj\tm_stm32f4_delay.o
 .debug_line    0x0000549d      0x24d ..\obj\file.o
 .debug_line    0x000056ea      0x463 ..\obj\tm_stm32f4_spi.o
 .debug_line    0x00005b4d      0x4b7 ..\obj\menu.o
 .debug_line    0x00006004      0x3f4 ..\obj\usbh_core.o
 .debug_line    0x000063f8      0x334 ..\obj\stm32f4xx_gpio.o
 .debug_line    0x0000672c      0x152 ..\obj\id3.o
 .debug_line    0x0000687e      0x339 ..\obj\usbh_msc_scsi.o
 .debug_line    0x00006bb7      0x1c2 ..\obj\system_stm32f4xx.o
 .debug_line    0x00006d79      0x24c ..\obj\DMA.o
 .debug_line    0x00006fc5      0x1cf ..\obj\syscalls.o
 .debug_line    0x00007194      0x3ae ..\obj\stm32f4xx_dma.o
 .debug_line    0x00007542      0x2f4 ..\obj\usbh_usr.o
 .debug_line    0x00007836      0x21a ..\obj\i2s.o
 .debug_line    0x00007a50      0x2d2 ..\obj\usb_bsp.o
 .debug_line    0x00007d22      0x25e ..\obj\tm_stm32f4_usb_msc_host.o
 .debug_line    0x00007f80      0x458 ..\obj\stproc.o
 .debug_line    0x000083d8      0x242 ..\obj\huffman.o
 .debug_line    0x0000861a       0x5d ..\obj\trigtabs_fixpt.o
 .debug_line    0x00008677      0x2f0 ..\obj\preamp.o
 .debug_line    0x00008967       0xf6 ..\obj\buffers.o
 .debug_line    0x00008a5d     0x1045 ..\obj\ff.o
 .debug_line    0x00009aa2      0x259 ..\obj\usb_hcd.o
 .debug_line    0x00009cfb      0x2e7 ..\obj\usbh_msc_bot.o
 .debug_line    0x00009fe2      0x419 ..\obj\stm32f4xx_spi.o
 .debug_line    0x0000a3fb      0x44f ..\obj\dct32.o
 .debug_line    0x0000a84a      0x4a2 ..\obj\stm32f4xx_i2c.o
 .debug_line    0x0000acec      0x2a2 ..\obj\usbh_ioreq.o
 .debug_line    0x0000af8e      0x23b ..\obj\misc.o
 .debug_line    0x0000b1c9      0x312 ..\obj\glcd.o
 .debug_line    0x0000b4db      0x33d ..\obj\tm_stm32f4_gpio.o
 .debug_line    0x0000b818      0x6ee ..\obj\polyphase.o
 .debug_line    0x0000bf06      0x9d3 ..\obj\stm32f4xx_tim.o
 .debug_line    0x0000c8d9      0x3fd ..\obj\usb_hcd_int.o

.debug_str      0x00000000     0x91f5
 .debug_str     0x00000000      0xffb ..\obj\usb_core.o
                               0x129d (size before relaxing)
 .debug_str     0x00000ffb      0x2e7 ..\obj\dqchan.o
                                0x456 (size before relaxing)
 .debug_str     0x000012e2      0x299 ..\obj\scalfact.o
                                0x5b1 (size before relaxing)
 .debug_str     0x0000157b      0x1dd ..\obj\i2c.o
                                0x356 (size before relaxing)
 .debug_str     0x00001758      0x63b ..\obj\mp3.o
                                0x7db (size before relaxing)
 .debug_str     0x00001d93      0x13c ..\obj\bitstream.o
                                0x5b3 (size before relaxing)
 .debug_str     0x00001ecf       0xc5 ..\obj\dequant.o
                                0x595 (size before relaxing)
 .debug_str     0x00001f94      0x9b5 ..\obj\tm_stm32f4_exti.o
                                0xb7b (size before relaxing)
 .debug_str     0x00002949      0x12c ..\obj\hufftabs.o
                                0x254 (size before relaxing)
 .debug_str     0x00002a75      0x204 ..\obj\imdct.o
                                0x637 (size before relaxing)
 .debug_str     0x00002c79      0x2a2 ..\obj\timer.o
                                0xa11 (size before relaxing)
 .debug_str     0x00002f1b      0x138 ..\obj\usbh_hcs.o
                                0x80a (size before relaxing)
 .debug_str     0x00003053      0x4d1 ..\obj\stm32f4xx_usart.o
                                0x6c8 (size before relaxing)
 .debug_str     0x00003524      0xa7b ..\obj\usbh_stdreq.o
                               0x12a8 (size before relaxing)
 .debug_str     0x00003f9f       0x4a ..\obj\mp3tabs.o
                                0x1f5 (size before relaxing)
 .debug_str     0x00003fe9       0x4f ..\obj\str.o
                                 0xe8 (size before relaxing)
 .debug_str     0x00004038       0xbe ..\obj\subband.o
                                0x384 (size before relaxing)
 .debug_str     0x000040f6      0x3dd ..\obj\diskio.o
                                0x5c7 (size before relaxing)
 .debug_str     0x000044d3       0xa9 ..\obj\startup_stm32f4xx.o
                                0x145 (size before relaxing)
 .debug_str     0x0000457c      0x280 ..\obj\fatfs_usb.o
                               0x13e5 (size before relaxing)
 .debug_str     0x000047fc      0x144 ..\obj\mp3dec.o
                                0x64d (size before relaxing)
 .debug_str     0x00004940      0x144 ..\obj\main.o
                                0x4c6 (size before relaxing)
 .debug_str     0x00004a84      0x4ce ..\obj\stm32f4xx_rcc.o
                                0x849 (size before relaxing)
 .debug_str     0x00004f52      0x41e ..\obj\tm_stm32f4_usart.o
                                0xe8f (size before relaxing)
 .debug_str     0x00005370      0x178 ..\obj\tm_stm32f4_rotary_encoder.o
                                0x472 (size before relaxing)
 .debug_str     0x000054e8      0x1f9 ..\obj\fatfs_sd.o
                                0x655 (size before relaxing)
 .debug_str     0x000056e1      0x3c0 ..\obj\usbh_msc_core.o
                               0x14fc (size before relaxing)
 .debug_str     0x00005aa1       0x44 ..\obj\bt.o
                                0x21b (size before relaxing)
 .debug_str     0x00005ae5      0x1ba ..\obj\gpio.o
                                0x46a (size before relaxing)
 .debug_str     0x00005c9f      0x2ad ..\obj\tm_stm32f4_delay.o
                                0xa31 (size before relaxing)
 .debug_str     0x00005f4c       0x99 ..\obj\file.o
                                0x499 (size before relaxing)
 .debug_str     0x00005fe5      0x28f ..\obj\tm_stm32f4_spi.o
                                0x758 (size before relaxing)
 .debug_str     0x00006274      0x285 ..\obj\menu.o
                                0x7e7 (size before relaxing)
 .debug_str     0x000064f9      0x1fc ..\obj\usbh_core.o
                               0x1390 (size before relaxing)
 .debug_str     0x000066f5      0x124 ..\obj\stm32f4xx_gpio.o
                                0x4b3 (size before relaxing)
 .debug_str     0x00006819       0xf8 ..\obj\id3.o
                                0x417 (size before relaxing)
 .debug_str     0x00006911      0x199 ..\obj\usbh_msc_scsi.o
                                0xbb7 (size before relaxing)
 .debug_str     0x00006aaa       0xa2 ..\obj\system_stm32f4xx.o
                                0x3a3 (size before relaxing)
 .debug_str     0x00006b4c       0xe6 ..\obj\DMA.o
                                0x8ca (size before relaxing)
 .debug_str     0x00006c32      0x15a ..\obj\syscalls.o
                                0x327 (size before relaxing)
 .debug_str     0x00006d8c      0x305 ..\obj\stm32f4xx_dma.o
                                0x53b (size before relaxing)
 .debug_str     0x00007091      0x242 ..\obj\usbh_usr.o
                                0x895 (size before relaxing)
 .debug_str     0x000072d3       0x52 ..\obj\i2s.o
                                0x4d8 (size before relaxing)
 .debug_str     0x00007325       0x95 ..\obj\usb_bsp.o
                                0xfac (size before relaxing)
 .debug_str     0x000073ba       0x70 ..\obj\tm_stm32f4_usb_msc_host.o
                               0x12be (size before relaxing)
 .debug_str     0x0000742a       0xa3 ..\obj\stproc.o
                                0x3a1 (size before relaxing)
 .debug_str     0x000074cd       0xba ..\obj\huffman.o
                                0x697 (size before relaxing)
 .debug_str     0x00007587       0x64 ..\obj\trigtabs_fixpt.o
                                0x1dd (size before relaxing)
 .debug_str     0x000075eb      0x121 ..\obj\preamp.o
                                0x478 (size before relaxing)
 .debug_str     0x0000770c       0x6d ..\obj\buffers.o
                                0x5f5 (size before relaxing)
 .debug_str     0x00007779      0x34a ..\obj\ff.o
                                0x788 (size before relaxing)
 .debug_str     0x00007ac3       0x7b ..\obj\usb_hcd.o
                                0x94f (size before relaxing)
 .debug_str     0x00007b3e       0xfa ..\obj\usbh_msc_bot.o
                               0x146b (size before relaxing)
 .debug_str     0x00007c38      0x2ae ..\obj\stm32f4xx_spi.o
                                0x6b1 (size before relaxing)
 .debug_str     0x00007ee6       0x49 ..\obj\dct32.o
                                0x189 (size before relaxing)
 .debug_str     0x00007f2f      0x2af ..\obj\stm32f4xx_i2c.o
                                0x687 (size before relaxing)
 .debug_str     0x000081de       0xab ..\obj\usbh_ioreq.o
                               0x117b (size before relaxing)
 .debug_str     0x00008289       0xd2 ..\obj\misc.o
                                0x3c7 (size before relaxing)
 .debug_str     0x0000835b       0xb9 ..\obj\glcd.o
                                0x306 (size before relaxing)
 .debug_str     0x00008414      0x16c ..\obj\tm_stm32f4_gpio.o
                                0x59a (size before relaxing)
 .debug_str     0x00008580       0x9e ..\obj\polyphase.o
                                0x1ed (size before relaxing)
 .debug_str     0x0000861e      0x975 ..\obj\stm32f4xx_tim.o
                                0xdf7 (size before relaxing)
 .debug_str     0x00008f93      0x262 ..\obj\usb_hcd_int.o
                                0xf59 (size before relaxing)

.comment        0x00000000       0x6e
 .comment       0x00000000       0x6e ..\obj\usb_core.o
                                 0x6f (size before relaxing)
 .comment       0x0000006e       0x6f ..\obj\dqchan.o
 .comment       0x0000006e       0x6f ..\obj\scalfact.o
 .comment       0x0000006e       0x6f ..\obj\i2c.o
 .comment       0x0000006e       0x6f ..\obj\mp3.o
 .comment       0x0000006e       0x6f ..\obj\bitstream.o
 .comment       0x0000006e       0x6f ..\obj\dequant.o
 .comment       0x0000006e       0x6f ..\obj\tm_stm32f4_exti.o
 .comment       0x0000006e       0x6f ..\obj\hufftabs.o
 .comment       0x0000006e       0x6f ..\obj\imdct.o
 .comment       0x0000006e       0x6f ..\obj\timer.o
 .comment       0x0000006e       0x6f ..\obj\usbh_hcs.o
 .comment       0x0000006e       0x6f ..\obj\stm32f4xx_usart.o
 .comment       0x0000006e       0x6f ..\obj\usbh_stdreq.o
 .comment       0x0000006e       0x6f ..\obj\mp3tabs.o
 .comment       0x0000006e       0x6f ..\obj\str.o
 .comment       0x0000006e       0x6f ..\obj\subband.o
 .comment       0x0000006e       0x6f ..\obj\diskio.o
 .comment       0x0000006e       0x6f ..\obj\startup_stm32f4xx.o
 .comment       0x0000006e       0x6f ..\obj\fatfs_usb.o
 .comment       0x0000006e       0x6f ..\obj\mp3dec.o
 .comment       0x0000006e       0x6f ..\obj\main.o
 .comment       0x0000006e       0x6f ..\obj\stm32f4xx_rcc.o
 .comment       0x0000006e       0x6f ..\obj\tm_stm32f4_usart.o
 .comment       0x0000006e       0x6f ..\obj\tm_stm32f4_rotary_encoder.o
 .comment       0x0000006e       0x6f ..\obj\fatfs_sd.o
 .comment       0x0000006e       0x6f ..\obj\usbh_msc_core.o
 .comment       0x0000006e       0x6f ..\obj\bt.o
 .comment       0x0000006e       0x6f ..\obj\gpio.o
 .comment       0x0000006e       0x6f ..\obj\tm_stm32f4_delay.o
 .comment       0x0000006e       0x6f ..\obj\file.o
 .comment       0x0000006e       0x6f ..\obj\tm_stm32f4_spi.o
 .comment       0x0000006e       0x6f ..\obj\menu.o
 .comment       0x0000006e       0x6f ..\obj\usbh_core.o
 .comment       0x0000006e       0x6f ..\obj\stm32f4xx_gpio.o
 .comment       0x0000006e       0x6f ..\obj\id3.o
 .comment       0x0000006e       0x6f ..\obj\usbh_msc_scsi.o
 .comment       0x0000006e       0x6f ..\obj\system_stm32f4xx.o
 .comment       0x0000006e       0x6f ..\obj\DMA.o
 .comment       0x0000006e       0x6f ..\obj\syscalls.o
 .comment       0x0000006e       0x6f ..\obj\stm32f4xx_dma.o
 .comment       0x0000006e       0x6f ..\obj\usbh_usr.o
 .comment       0x0000006e       0x6f ..\obj\i2s.o
 .comment       0x0000006e       0x6f ..\obj\usb_bsp.o
 .comment       0x0000006e       0x6f ..\obj\tm_stm32f4_usb_msc_host.o
 .comment       0x0000006e       0x6f ..\obj\stproc.o
 .comment       0x0000006e       0x6f ..\obj\huffman.o
 .comment       0x0000006e       0x6f ..\obj\trigtabs_fixpt.o
 .comment       0x0000006e       0x6f ..\obj\preamp.o
 .comment       0x0000006e       0x6f ..\obj\buffers.o
 .comment       0x0000006e       0x6f ..\obj\ff.o
 .comment       0x0000006e       0x6f ..\obj\usb_hcd.o
 .comment       0x0000006e       0x6f ..\obj\usbh_msc_bot.o
 .comment       0x0000006e       0x6f ..\obj\stm32f4xx_spi.o
 .comment       0x0000006e       0x6f ..\obj\dct32.o
 .comment       0x0000006e       0x6f ..\obj\stm32f4xx_i2c.o
 .comment       0x0000006e       0x6f ..\obj\usbh_ioreq.o
 .comment       0x0000006e       0x6f ..\obj\misc.o
 .comment       0x0000006e       0x6f ..\obj\glcd.o
 .comment       0x0000006e       0x6f ..\obj\tm_stm32f4_gpio.o
 .comment       0x0000006e       0x6f ..\obj\polyphase.o
 .comment       0x0000006e       0x6f ..\obj\stm32f4xx_tim.o
 .comment       0x0000006e       0x6f ..\obj\usb_hcd_int.o

.ARM.attributes
                0x00000000       0x31
 .ARM.attributes
                0x00000000       0x33 ..\obj\usb_core.o
 .ARM.attributes
                0x00000033       0x33 ..\obj\dqchan.o
 .ARM.attributes
                0x00000066       0x33 ..\obj\scalfact.o
 .ARM.attributes
                0x00000099       0x33 ..\obj\i2c.o
 .ARM.attributes
                0x000000cc       0x33 ..\obj\mp3.o
 .ARM.attributes
                0x000000ff       0x33 ..\obj\bitstream.o
 .ARM.attributes
                0x00000132       0x33 ..\obj\dequant.o
 .ARM.attributes
                0x00000165       0x33 ..\obj\tm_stm32f4_exti.o
 .ARM.attributes
                0x00000198       0x33 ..\obj\hufftabs.o
 .ARM.attributes
                0x000001cb       0x33 ..\obj\imdct.o
 .ARM.attributes
                0x000001fe       0x33 ..\obj\timer.o
 .ARM.attributes
                0x00000231       0x33 ..\obj\usbh_hcs.o
 .ARM.attributes
                0x00000264       0x33 ..\obj\stm32f4xx_usart.o
 .ARM.attributes
                0x00000297       0x33 ..\obj\usbh_stdreq.o
 .ARM.attributes
                0x000002ca       0x33 ..\obj\mp3tabs.o
 .ARM.attributes
                0x000002fd       0x33 ..\obj\str.o
 .ARM.attributes
                0x00000330       0x33 ..\obj\subband.o
 .ARM.attributes
                0x00000363       0x33 ..\obj\diskio.o
 .ARM.attributes
                0x00000396       0x33 ..\obj\startup_stm32f4xx.o
 .ARM.attributes
                0x000003c9       0x33 ..\obj\fatfs_usb.o
 .ARM.attributes
                0x000003fc       0x33 ..\obj\mp3dec.o
 .ARM.attributes
                0x0000042f       0x33 ..\obj\main.o
 .ARM.attributes
                0x00000462       0x33 ..\obj\stm32f4xx_rcc.o
 .ARM.attributes
                0x00000495       0x33 ..\obj\tm_stm32f4_usart.o
 .ARM.attributes
                0x000004c8       0x33 ..\obj\tm_stm32f4_rotary_encoder.o
 .ARM.attributes
                0x000004fb       0x33 ..\obj\fatfs_sd.o
 .ARM.attributes
                0x0000052e       0x33 ..\obj\usbh_msc_core.o
 .ARM.attributes
                0x00000561       0x33 ..\obj\bt.o
 .ARM.attributes
                0x00000594       0x33 ..\obj\gpio.o
 .ARM.attributes
                0x000005c7       0x33 ..\obj\tm_stm32f4_delay.o
 .ARM.attributes
                0x000005fa       0x33 ..\obj\file.o
 .ARM.attributes
                0x0000062d       0x33 ..\obj\tm_stm32f4_spi.o
 .ARM.attributes
                0x00000660       0x33 ..\obj\menu.o
 .ARM.attributes
                0x00000693       0x33 ..\obj\usbh_core.o
 .ARM.attributes
                0x000006c6       0x33 ..\obj\stm32f4xx_gpio.o
 .ARM.attributes
                0x000006f9       0x33 ..\obj\id3.o
 .ARM.attributes
                0x0000072c       0x33 ..\obj\usbh_msc_scsi.o
 .ARM.attributes
                0x0000075f       0x33 ..\obj\system_stm32f4xx.o
 .ARM.attributes
                0x00000792       0x33 ..\obj\DMA.o
 .ARM.attributes
                0x000007c5       0x33 ..\obj\syscalls.o
 .ARM.attributes
                0x000007f8       0x33 ..\obj\stm32f4xx_dma.o
 .ARM.attributes
                0x0000082b       0x33 ..\obj\usbh_usr.o
 .ARM.attributes
                0x0000085e       0x33 ..\obj\i2s.o
 .ARM.attributes
                0x00000891       0x33 ..\obj\usb_bsp.o
 .ARM.attributes
                0x000008c4       0x33 ..\obj\tm_stm32f4_usb_msc_host.o
 .ARM.attributes
                0x000008f7       0x33 ..\obj\stproc.o
 .ARM.attributes
                0x0000092a       0x33 ..\obj\huffman.o
 .ARM.attributes
                0x0000095d       0x33 ..\obj\trigtabs_fixpt.o
 .ARM.attributes
                0x00000990       0x33 ..\obj\preamp.o
 .ARM.attributes
                0x000009c3       0x33 ..\obj\buffers.o
 .ARM.attributes
                0x000009f6       0x33 ..\obj\ff.o
 .ARM.attributes
                0x00000a29       0x33 ..\obj\usb_hcd.o
 .ARM.attributes
                0x00000a5c       0x33 ..\obj\usbh_msc_bot.o
 .ARM.attributes
                0x00000a8f       0x33 ..\obj\stm32f4xx_spi.o
 .ARM.attributes
                0x00000ac2       0x33 ..\obj\dct32.o
 .ARM.attributes
                0x00000af5       0x33 ..\obj\stm32f4xx_i2c.o
 .ARM.attributes
                0x00000b28       0x33 ..\obj\usbh_ioreq.o
 .ARM.attributes
                0x00000b5b       0x33 ..\obj\misc.o
 .ARM.attributes
                0x00000b8e       0x33 ..\obj\glcd.o
 .ARM.attributes
                0x00000bc1       0x33 ..\obj\tm_stm32f4_gpio.o
 .ARM.attributes
                0x00000bf4       0x33 ..\obj\polyphase.o
 .ARM.attributes
                0x00000c27       0x33 ..\obj\stm32f4xx_tim.o
 .ARM.attributes
                0x00000c5a       0x33 ..\obj\usb_hcd_int.o
 .ARM.attributes
                0x00000c8d       0x1e c:/program files (x86)/gnu tools arm embedded/5.4 2016q3/bin/../lib/gcc/arm-none-eabi/5.4.1/armv7e-m\libgcc.a(_arm_addsubdf3.o)
 .ARM.attributes
                0x00000cab       0x1e c:/program files (x86)/gnu tools arm embedded/5.4 2016q3/bin/../lib/gcc/arm-none-eabi/5.4.1/armv7e-m\libgcc.a(_arm_muldivdf3.o)
 .ARM.attributes
                0x00000cc9       0x1e c:/program files (x86)/gnu tools arm embedded/5.4 2016q3/bin/../lib/gcc/arm-none-eabi/5.4.1/armv7e-m\libgcc.a(_arm_cmpdf2.o)
 .ARM.attributes
                0x00000ce7       0x2e c:/program files (x86)/gnu tools arm embedded/5.4 2016q3/bin/../lib/gcc/arm-none-eabi/5.4.1/../../../../arm-none-eabi/lib/armv7e-m\libg.a(lib_a-mallocr.o)
 .ARM.attributes
                0x00000d15       0x1c c:/program files (x86)/gnu tools arm embedded/5.4 2016q3/bin/../lib/gcc/arm-none-eabi/5.4.1/../../../../arm-none-eabi/lib/armv7e-m\libg.a(lib_a-memcpy.o)
 .ARM.attributes
                0x00000d31       0x2e c:/program files (x86)/gnu tools arm embedded/5.4 2016q3/bin/../lib/gcc/arm-none-eabi/5.4.1/../../../../arm-none-eabi/lib/armv7e-m\libg.a(lib_a-memmove.o)
 .ARM.attributes
                0x00000d5f       0x2e c:/program files (x86)/gnu tools arm embedded/5.4 2016q3/bin/../lib/gcc/arm-none-eabi/5.4.1/../../../../arm-none-eabi/lib/armv7e-m\libg.a(lib_a-mlock.o)
 .ARM.attributes
                0x00000d8d       0x2e c:/program files (x86)/gnu tools arm embedded/5.4 2016q3/bin/../lib/gcc/arm-none-eabi/5.4.1/../../../../arm-none-eabi/lib/armv7e-m\libg.a(lib_a-realloc.o)
 .ARM.attributes
                0x00000dbb       0x2e c:/program files (x86)/gnu tools arm embedded/5.4 2016q3/bin/../lib/gcc/arm-none-eabi/5.4.1/../../../../arm-none-eabi/lib/armv7e-m\libg.a(lib_a-reallocr.o)
 .ARM.attributes
                0x00000de9       0x2e c:/program files (x86)/gnu tools arm embedded/5.4 2016q3/bin/../lib/gcc/arm-none-eabi/5.4.1/../../../../arm-none-eabi/lib/armv7e-m\libg.a(lib_a-sbrkr.o)
 .ARM.attributes
                0x00000e17       0x2e c:/program files (x86)/gnu tools arm embedded/5.4 2016q3/bin/../lib/gcc/arm-none-eabi/5.4.1/../../../../arm-none-eabi/lib/armv7e-m\libg.a(lib_a-sprintf.o)
 .ARM.attributes
                0x00000e45       0x2e c:/program files (x86)/gnu tools arm embedded/5.4 2016q3/bin/../lib/gcc/arm-none-eabi/5.4.1/../../../../arm-none-eabi/lib/armv7e-m\libg.a(lib_a-strcpy.o)
 .ARM.attributes
                0x00000e73       0x1c c:/program files (x86)/gnu tools arm embedded/5.4 2016q3/bin/../lib/gcc/arm-none-eabi/5.4.1/../../../../arm-none-eabi/lib/armv7e-m\libg.a(lib_a-strlen.o)
 .ARM.attributes
                0x00000e8f       0x2e c:/program files (x86)/gnu tools arm embedded/5.4 2016q3/bin/../lib/gcc/arm-none-eabi/5.4.1/../../../../arm-none-eabi/lib/armv7e-m\libg.a(lib_a-svfprintf.o)
 .ARM.attributes
                0x00000ebd       0x2e c:/program files (x86)/gnu tools arm embedded/5.4 2016q3/bin/../lib/gcc/arm-none-eabi/5.4.1/../../../../arm-none-eabi/lib/armv7e-m\libg.a(lib_a-dtoa.o)
 .ARM.attributes
                0x00000eeb       0x2e c:/program files (x86)/gnu tools arm embedded/5.4 2016q3/bin/../lib/gcc/arm-none-eabi/5.4.1/../../../../arm-none-eabi/lib/armv7e-m\libg.a(lib_a-freer.o)
 .ARM.attributes
                0x00000f19       0x2e c:/program files (x86)/gnu tools arm embedded/5.4 2016q3/bin/../lib/gcc/arm-none-eabi/5.4.1/../../../../arm-none-eabi/lib/armv7e-m\libg.a(lib_a-impure.o)
 .ARM.attributes
                0x00000f47       0x2e c:/program files (x86)/gnu tools arm embedded/5.4 2016q3/bin/../lib/gcc/arm-none-eabi/5.4.1/../../../../arm-none-eabi/lib/armv7e-m\libg.a(lib_a-localeconv.o)
 .ARM.attributes
                0x00000f75       0x1c c:/program files (x86)/gnu tools arm embedded/5.4 2016q3/bin/../lib/gcc/arm-none-eabi/5.4.1/../../../../arm-none-eabi/lib/armv7e-m\libg.a(lib_a-memchr.o)
 .ARM.attributes
                0x00000f91       0x2e c:/program files (x86)/gnu tools arm embedded/5.4 2016q3/bin/../lib/gcc/arm-none-eabi/5.4.1/../../../../arm-none-eabi/lib/armv7e-m\libg.a(lib_a-mprec.o)
 .ARM.attributes
                0x00000fbf       0x2e c:/program files (x86)/gnu tools arm embedded/5.4 2016q3/bin/../lib/gcc/arm-none-eabi/5.4.1/../../../../arm-none-eabi/lib/armv7e-m\libg.a(lib_a-reent.o)
 .ARM.attributes
                0x00000fed       0x2e c:/program files (x86)/gnu tools arm embedded/5.4 2016q3/bin/../lib/gcc/arm-none-eabi/5.4.1/../../../../arm-none-eabi/lib/armv7e-m\libg.a(lib_a-svfiprintf.o)
 .ARM.attributes
                0x0000101b       0x2e c:/program files (x86)/gnu tools arm embedded/5.4 2016q3/bin/../lib/gcc/arm-none-eabi/5.4.1/../../../../arm-none-eabi/lib/armv7e-m\libg.a(lib_a-callocr.o)
 .ARM.attributes
                0x00001049       0x2e c:/program files (x86)/gnu tools arm embedded/5.4 2016q3/bin/../lib/gcc/arm-none-eabi/5.4.1/../../../../arm-none-eabi/lib/armv7e-m\libg.a(lib_a-locale.o)
 .ARM.attributes
                0x00001077       0x2e c:/program files (x86)/gnu tools arm embedded/5.4 2016q3/bin/../lib/gcc/arm-none-eabi/5.4.1/../../../../arm-none-eabi/lib/armv7e-m\libg.a(lib_a-mbtowc_r.o)
 .ARM.attributes
                0x000010a5       0x2e c:/program files (x86)/gnu tools arm embedded/5.4 2016q3/bin/../lib/gcc/arm-none-eabi/5.4.1/../../../../arm-none-eabi/lib/armv7e-m\libg.a(lib_a-memset.o)
 .ARM.attributes
                0x000010d3       0x2e c:/program files (x86)/gnu tools arm embedded/5.4 2016q3/bin/../lib/gcc/arm-none-eabi/5.4.1/../../../../arm-none-eabi/lib/armv7e-m\libg.a(lib_a-wctomb_r.o)
 .ARM.attributes
                0x00001101       0x2e c:/program files (x86)/gnu tools arm embedded/5.4 2016q3/bin/../lib/gcc/arm-none-eabi/5.4.1/../../../../arm-none-eabi/lib/armv7e-m\libg.a(lib_a-ctype_.o)
 .ARM.attributes
                0x0000112f       0x1e c:/program files (x86)/gnu tools arm embedded/5.4 2016q3/bin/../lib/gcc/arm-none-eabi/5.4.1/armv7e-m\libgcc.a(_arm_unorddf2.o)
 .ARM.attributes
                0x0000114d       0x1e c:/program files (x86)/gnu tools arm embedded/5.4 2016q3/bin/../lib/gcc/arm-none-eabi/5.4.1/armv7e-m\libgcc.a(_arm_fixdfsi.o)
 .ARM.attributes
                0x0000116b       0x1e c:/program files (x86)/gnu tools arm embedded/5.4 2016q3/bin/../lib/gcc/arm-none-eabi/5.4.1/armv7e-m\libgcc.a(_aeabi_uldivmod.o)
 .ARM.attributes
                0x00001189       0x2e c:/program files (x86)/gnu tools arm embedded/5.4 2016q3/bin/../lib/gcc/arm-none-eabi/5.4.1/armv7e-m\libgcc.a(_udivmoddi4.o)
 .ARM.attributes
                0x000011b7       0x1e c:/program files (x86)/gnu tools arm embedded/5.4 2016q3/bin/../lib/gcc/arm-none-eabi/5.4.1/armv7e-m\libgcc.a(_dvmd_tls.o)

.debug_frame    0x00000000     0x4c58
 .debug_frame   0x00000000      0x2a4 ..\obj\usb_core.o
 .debug_frame   0x000002a4       0x6c ..\obj\dqchan.o
 .debug_frame   0x00000310       0x40 ..\obj\scalfact.o
 .debug_frame   0x00000350       0x84 ..\obj\i2c.o
 .debug_frame   0x000003d4       0xd8 ..\obj\mp3.o
 .debug_frame   0x000004ac       0xe8 ..\obj\bitstream.o
 .debug_frame   0x00000594       0x60 ..\obj\dequant.o
 .debug_frame   0x000005f4      0x100 ..\obj\tm_stm32f4_exti.o
 .debug_frame   0x000006f4       0x88 ..\obj\imdct.o
 .debug_frame   0x0000077c       0xd4 ..\obj\timer.o
 .debug_frame   0x00000850       0x84 ..\obj\usbh_hcs.o
 .debug_frame   0x000008d4      0x21c ..\obj\stm32f4xx_usart.o
 .debug_frame   0x00000af0      0x118 ..\obj\usbh_stdreq.o
 .debug_frame   0x00000c08       0x5c ..\obj\str.o
 .debug_frame   0x00000c64       0x60 ..\obj\subband.o
 .debug_frame   0x00000cc4      0x278 ..\obj\diskio.o
 .debug_frame   0x00000f3c       0x38 ..\obj\startup_stm32f4xx.o
 .debug_frame   0x00000f74       0xd0 ..\obj\fatfs_usb.o
 .debug_frame   0x00001044      0x100 ..\obj\mp3dec.o
 .debug_frame   0x00001144       0x28 ..\obj\main.o
 .debug_frame   0x0000116c      0x2f8 ..\obj\stm32f4xx_rcc.o
 .debug_frame   0x00001464      0x2ec ..\obj\tm_stm32f4_usart.o
 .debug_frame   0x00001750       0x70 ..\obj\tm_stm32f4_rotary_encoder.o
 .debug_frame   0x000017c0      0x19c ..\obj\fatfs_sd.o
 .debug_frame   0x0000195c       0x8c ..\obj\usbh_msc_core.o
 .debug_frame   0x000019e8       0x2c ..\obj\bt.o
 .debug_frame   0x00001a14       0x7c ..\obj\gpio.o
 .debug_frame   0x00001a90       0xf4 ..\obj\tm_stm32f4_delay.o
 .debug_frame   0x00001b84       0x50 ..\obj\file.o
 .debug_frame   0x00001bd4      0x1a8 ..\obj\tm_stm32f4_spi.o
 .debug_frame   0x00001d7c      0x190 ..\obj\menu.o
 .debug_frame   0x00001f0c       0xd4 ..\obj\usbh_core.o
 .debug_frame   0x00001fe0      0x11c ..\obj\stm32f4xx_gpio.o
 .debug_frame   0x000020fc       0x64 ..\obj\id3.o
 .debug_frame   0x00002160       0xb4 ..\obj\usbh_msc_scsi.o
 .debug_frame   0x00002214       0x38 ..\obj\system_stm32f4xx.o
 .debug_frame   0x0000224c       0x5c ..\obj\DMA.o
 .debug_frame   0x000022a8       0xa0 ..\obj\syscalls.o
 .debug_frame   0x00002348      0x17c ..\obj\stm32f4xx_dma.o
 .debug_frame   0x000024c4      0x130 ..\obj\usbh_usr.o
 .debug_frame   0x000025f4       0x4c ..\obj\i2s.o
 .debug_frame   0x00002640       0xdc ..\obj\usb_bsp.o
 .debug_frame   0x0000271c       0x6c ..\obj\tm_stm32f4_usb_msc_host.o
 .debug_frame   0x00002788       0x90 ..\obj\stproc.o
 .debug_frame   0x00002818       0x40 ..\obj\huffman.o
 .debug_frame   0x00002858       0xe4 ..\obj\preamp.o
 .debug_frame   0x0000293c       0x54 ..\obj\buffers.o
 .debug_frame   0x00002990      0x788 ..\obj\ff.o
 .debug_frame   0x00003118       0xd4 ..\obj\usb_hcd.o
 .debug_frame   0x000031ec       0x74 ..\obj\usbh_msc_bot.o
 .debug_frame   0x00003260      0x1e4 ..\obj\stm32f4xx_spi.o
 .debug_frame   0x00003444       0x40 ..\obj\dct32.o
 .debug_frame   0x00003484      0x24c ..\obj\stm32f4xx_i2c.o
 .debug_frame   0x000036d0      0x120 ..\obj\usbh_ioreq.o
 .debug_frame   0x000037f0       0x74 ..\obj\misc.o
 .debug_frame   0x00003864      0x118 ..\obj\glcd.o
 .debug_frame   0x0000397c      0x1c8 ..\obj\tm_stm32f4_gpio.o
 .debug_frame   0x00003b44       0x68 ..\obj\polyphase.o
 .debug_frame   0x00003bac      0x680 ..\obj\stm32f4xx_tim.o
 .debug_frame   0x0000422c      0x1a8 ..\obj\usb_hcd_int.o
 .debug_frame   0x000043d4       0x58 c:/program files (x86)/gnu tools arm embedded/5.4 2016q3/bin/../lib/gcc/arm-none-eabi/5.4.1/../../../../arm-none-eabi/lib/armv7e-m\libg.a(lib_a-mallocr.o)
 .debug_frame   0x0000442c       0x30 c:/program files (x86)/gnu tools arm embedded/5.4 2016q3/bin/../lib/gcc/arm-none-eabi/5.4.1/../../../../arm-none-eabi/lib/armv7e-m\libg.a(lib_a-memmove.o)
 .debug_frame   0x0000445c       0x30 c:/program files (x86)/gnu tools arm embedded/5.4 2016q3/bin/../lib/gcc/arm-none-eabi/5.4.1/../../../../arm-none-eabi/lib/armv7e-m\libg.a(lib_a-mlock.o)
 .debug_frame   0x0000448c       0x20 c:/program files (x86)/gnu tools arm embedded/5.4 2016q3/bin/../lib/gcc/arm-none-eabi/5.4.1/../../../../arm-none-eabi/lib/armv7e-m\libg.a(lib_a-realloc.o)
 .debug_frame   0x000044ac       0x60 c:/program files (x86)/gnu tools arm embedded/5.4 2016q3/bin/../lib/gcc/arm-none-eabi/5.4.1/../../../../arm-none-eabi/lib/armv7e-m\libg.a(lib_a-reallocr.o)
 .debug_frame   0x0000450c       0x2c c:/program files (x86)/gnu tools arm embedded/5.4 2016q3/bin/../lib/gcc/arm-none-eabi/5.4.1/../../../../arm-none-eabi/lib/armv7e-m\libg.a(lib_a-sbrkr.o)
 .debug_frame   0x00004538       0x84 c:/program files (x86)/gnu tools arm embedded/5.4 2016q3/bin/../lib/gcc/arm-none-eabi/5.4.1/../../../../arm-none-eabi/lib/armv7e-m\libg.a(lib_a-sprintf.o)
 .debug_frame   0x000045bc       0x20 c:/program files (x86)/gnu tools arm embedded/5.4 2016q3/bin/../lib/gcc/arm-none-eabi/5.4.1/../../../../arm-none-eabi/lib/armv7e-m\libg.a(lib_a-strcpy.o)
 .debug_frame   0x000045dc       0x44 c:/program files (x86)/gnu tools arm embedded/5.4 2016q3/bin/../lib/gcc/arm-none-eabi/5.4.1/../../../../arm-none-eabi/lib/armv7e-m\libg.a(lib_a-svfprintf.o)
 .debug_frame   0x00004620       0x88 c:/program files (x86)/gnu tools arm embedded/5.4 2016q3/bin/../lib/gcc/arm-none-eabi/5.4.1/../../../../arm-none-eabi/lib/armv7e-m\libg.a(lib_a-dtoa.o)
 .debug_frame   0x000046a8       0x74 c:/program files (x86)/gnu tools arm embedded/5.4 2016q3/bin/../lib/gcc/arm-none-eabi/5.4.1/../../../../arm-none-eabi/lib/armv7e-m\libg.a(lib_a-freer.o)
 .debug_frame   0x0000471c       0x40 c:/program files (x86)/gnu tools arm embedded/5.4 2016q3/bin/../lib/gcc/arm-none-eabi/5.4.1/../../../../arm-none-eabi/lib/armv7e-m\libg.a(lib_a-localeconv.o)
 .debug_frame   0x0000475c      0x264 c:/program files (x86)/gnu tools arm embedded/5.4 2016q3/bin/../lib/gcc/arm-none-eabi/5.4.1/../../../../arm-none-eabi/lib/armv7e-m\libg.a(lib_a-mprec.o)
 .debug_frame   0x000049c0       0x58 c:/program files (x86)/gnu tools arm embedded/5.4 2016q3/bin/../lib/gcc/arm-none-eabi/5.4.1/../../../../arm-none-eabi/lib/armv7e-m\libg.a(lib_a-reent.o)
 .debug_frame   0x00004a18       0x78 c:/program files (x86)/gnu tools arm embedded/5.4 2016q3/bin/../lib/gcc/arm-none-eabi/5.4.1/../../../../arm-none-eabi/lib/armv7e-m\libg.a(lib_a-svfiprintf.o)
 .debug_frame   0x00004a90       0x28 c:/program files (x86)/gnu tools arm embedded/5.4 2016q3/bin/../lib/gcc/arm-none-eabi/5.4.1/../../../../arm-none-eabi/lib/armv7e-m\libg.a(lib_a-callocr.o)
 .debug_frame   0x00004ab8       0x84 c:/program files (x86)/gnu tools arm embedded/5.4 2016q3/bin/../lib/gcc/arm-none-eabi/5.4.1/../../../../arm-none-eabi/lib/armv7e-m\libg.a(lib_a-locale.o)
 .debug_frame   0x00004b3c       0x4c c:/program files (x86)/gnu tools arm embedded/5.4 2016q3/bin/../lib/gcc/arm-none-eabi/5.4.1/../../../../arm-none-eabi/lib/armv7e-m\libg.a(lib_a-mbtowc_r.o)
 .debug_frame   0x00004b88       0x34 c:/program files (x86)/gnu tools arm embedded/5.4 2016q3/bin/../lib/gcc/arm-none-eabi/5.4.1/../../../../arm-none-eabi/lib/armv7e-m\libg.a(lib_a-memset.o)
 .debug_frame   0x00004bbc       0x3c c:/program files (x86)/gnu tools arm embedded/5.4 2016q3/bin/../lib/gcc/arm-none-eabi/5.4.1/../../../../arm-none-eabi/lib/armv7e-m\libg.a(lib_a-wctomb_r.o)
 .debug_frame   0x00004bf8       0x2c c:/program files (x86)/gnu tools arm embedded/5.4 2016q3/bin/../lib/gcc/arm-none-eabi/5.4.1/armv7e-m\libgcc.a(_aeabi_uldivmod.o)
 .debug_frame   0x00004c24       0x34 c:/program files (x86)/gnu tools arm embedded/5.4 2016q3/bin/../lib/gcc/arm-none-eabi/5.4.1/armv7e-m\libgcc.a(_udivmoddi4.o)
