Archive member included to satisfy reference by file (symbol)

c:/program files (x86)/gnu tools arm embedded/5.4 2016q3/bin/../lib/gcc/arm-none-eabi/5.4.1/armv7e-m\libgcc.a(_arm_addsubdf3.o)
                              ..\obj\tm_stm32f4_fatfs.o (__aeabi_ui2d)
c:/program files (x86)/gnu tools arm embedded/5.4 2016q3/bin/../lib/gcc/arm-none-eabi/5.4.1/armv7e-m\libgcc.a(_arm_muldivdf3.o)
                              ..\obj\tm_stm32f4_fatfs.o (__aeabi_dmul)
c:/program files (x86)/gnu tools arm embedded/5.4 2016q3/bin/../lib/gcc/arm-none-eabi/5.4.1/armv7e-m\libgcc.a(_arm_cmpdf2.o)
                              ..\obj\tm_stm32f4_timer_properties.o (__aeabi_dcmpeq)
c:/program files (x86)/gnu tools arm embedded/5.4 2016q3/bin/../lib/gcc/arm-none-eabi/5.4.1/armv7e-m\libgcc.a(_arm_fixunsdfsi.o)
                              ..\obj\tm_stm32f4_fatfs.o (__aeabi_d2uiz)
c:/program files (x86)/gnu tools arm embedded/5.4 2016q3/bin/../lib/gcc/arm-none-eabi/5.4.1/../../../../arm-none-eabi/lib/armv7e-m\libg.a(lib_a-malloc.o)
                              ..\obj\tm_stm32f4_fatfs.o (malloc)
c:/program files (x86)/gnu tools arm embedded/5.4 2016q3/bin/../lib/gcc/arm-none-eabi/5.4.1/../../../../arm-none-eabi/lib/armv7e-m\libg.a(lib_a-mallocr.o)
                              c:/program files (x86)/gnu tools arm embedded/5.4 2016q3/bin/../lib/gcc/arm-none-eabi/5.4.1/../../../../arm-none-eabi/lib/armv7e-m\libg.a(lib_a-malloc.o) (_malloc_r)
c:/program files (x86)/gnu tools arm embedded/5.4 2016q3/bin/../lib/gcc/arm-none-eabi/5.4.1/../../../../arm-none-eabi/lib/armv7e-m\libg.a(lib_a-memcpy.o)
                              ..\obj\mp3dec.o (memcpy)
c:/program files (x86)/gnu tools arm embedded/5.4 2016q3/bin/../lib/gcc/arm-none-eabi/5.4.1/../../../../arm-none-eabi/lib/armv7e-m\libg.a(lib_a-memmove.o)
                              ..\obj\mp3dec.o (memmove)
c:/program files (x86)/gnu tools arm embedded/5.4 2016q3/bin/../lib/gcc/arm-none-eabi/5.4.1/../../../../arm-none-eabi/lib/armv7e-m\libg.a(lib_a-mlock.o)
                              c:/program files (x86)/gnu tools arm embedded/5.4 2016q3/bin/../lib/gcc/arm-none-eabi/5.4.1/../../../../arm-none-eabi/lib/armv7e-m\libg.a(lib_a-mallocr.o) (__malloc_lock)
c:/program files (x86)/gnu tools arm embedded/5.4 2016q3/bin/../lib/gcc/arm-none-eabi/5.4.1/../../../../arm-none-eabi/lib/armv7e-m\libg.a(lib_a-realloc.o)
                              ..\obj\file.o (realloc)
c:/program files (x86)/gnu tools arm embedded/5.4 2016q3/bin/../lib/gcc/arm-none-eabi/5.4.1/../../../../arm-none-eabi/lib/armv7e-m\libg.a(lib_a-reallocr.o)
                              c:/program files (x86)/gnu tools arm embedded/5.4 2016q3/bin/../lib/gcc/arm-none-eabi/5.4.1/../../../../arm-none-eabi/lib/armv7e-m\libg.a(lib_a-realloc.o) (_realloc_r)
c:/program files (x86)/gnu tools arm embedded/5.4 2016q3/bin/../lib/gcc/arm-none-eabi/5.4.1/../../../../arm-none-eabi/lib/armv7e-m\libg.a(lib_a-sbrkr.o)
                              c:/program files (x86)/gnu tools arm embedded/5.4 2016q3/bin/../lib/gcc/arm-none-eabi/5.4.1/../../../../arm-none-eabi/lib/armv7e-m\libg.a(lib_a-mallocr.o) (_sbrk_r)
c:/program files (x86)/gnu tools arm embedded/5.4 2016q3/bin/../lib/gcc/arm-none-eabi/5.4.1/../../../../arm-none-eabi/lib/armv7e-m\libg.a(lib_a-sprintf.o)
                              ..\obj\tm_stm32f4_fatfs.o (sprintf)
c:/program files (x86)/gnu tools arm embedded/5.4 2016q3/bin/../lib/gcc/arm-none-eabi/5.4.1/../../../../arm-none-eabi/lib/armv7e-m\libg.a(lib_a-strcpy.o)
                              ..\obj\tm_stm32f4_fatfs.o (strcpy)
c:/program files (x86)/gnu tools arm embedded/5.4 2016q3/bin/../lib/gcc/arm-none-eabi/5.4.1/../../../../arm-none-eabi/lib/armv7e-m\libg.a(lib_a-strlen.o)
                              ..\obj\tm_stm32f4_fatfs.o (strlen)
c:/program files (x86)/gnu tools arm embedded/5.4 2016q3/bin/../lib/gcc/arm-none-eabi/5.4.1/../../../../arm-none-eabi/lib/armv7e-m\libg.a(lib_a-svfprintf.o)
                              c:/program files (x86)/gnu tools arm embedded/5.4 2016q3/bin/../lib/gcc/arm-none-eabi/5.4.1/../../../../arm-none-eabi/lib/armv7e-m\libg.a(lib_a-sprintf.o) (_svfprintf_r)
c:/program files (x86)/gnu tools arm embedded/5.4 2016q3/bin/../lib/gcc/arm-none-eabi/5.4.1/../../../../arm-none-eabi/lib/armv7e-m\libg.a(lib_a-dtoa.o)
                              c:/program files (x86)/gnu tools arm embedded/5.4 2016q3/bin/../lib/gcc/arm-none-eabi/5.4.1/../../../../arm-none-eabi/lib/armv7e-m\libg.a(lib_a-svfprintf.o) (_dtoa_r)
c:/program files (x86)/gnu tools arm embedded/5.4 2016q3/bin/../lib/gcc/arm-none-eabi/5.4.1/../../../../arm-none-eabi/lib/armv7e-m\libg.a(lib_a-freer.o)
                              c:/program files (x86)/gnu tools arm embedded/5.4 2016q3/bin/../lib/gcc/arm-none-eabi/5.4.1/../../../../arm-none-eabi/lib/armv7e-m\libg.a(lib_a-malloc.o) (_free_r)
c:/program files (x86)/gnu tools arm embedded/5.4 2016q3/bin/../lib/gcc/arm-none-eabi/5.4.1/../../../../arm-none-eabi/lib/armv7e-m\libg.a(lib_a-impure.o)
                              c:/program files (x86)/gnu tools arm embedded/5.4 2016q3/bin/../lib/gcc/arm-none-eabi/5.4.1/../../../../arm-none-eabi/lib/armv7e-m\libg.a(lib_a-malloc.o) (_impure_ptr)
c:/program files (x86)/gnu tools arm embedded/5.4 2016q3/bin/../lib/gcc/arm-none-eabi/5.4.1/../../../../arm-none-eabi/lib/armv7e-m\libg.a(lib_a-localeconv.o)
                              c:/program files (x86)/gnu tools arm embedded/5.4 2016q3/bin/../lib/gcc/arm-none-eabi/5.4.1/../../../../arm-none-eabi/lib/armv7e-m\libg.a(lib_a-svfprintf.o) (_localeconv_r)
c:/program files (x86)/gnu tools arm embedded/5.4 2016q3/bin/../lib/gcc/arm-none-eabi/5.4.1/../../../../arm-none-eabi/lib/armv7e-m\libg.a(lib_a-memchr.o)
                              c:/program files (x86)/gnu tools arm embedded/5.4 2016q3/bin/../lib/gcc/arm-none-eabi/5.4.1/../../../../arm-none-eabi/lib/armv7e-m\libg.a(lib_a-svfprintf.o) (memchr)
c:/program files (x86)/gnu tools arm embedded/5.4 2016q3/bin/../lib/gcc/arm-none-eabi/5.4.1/../../../../arm-none-eabi/lib/armv7e-m\libg.a(lib_a-mprec.o)
                              c:/program files (x86)/gnu tools arm embedded/5.4 2016q3/bin/../lib/gcc/arm-none-eabi/5.4.1/../../../../arm-none-eabi/lib/armv7e-m\libg.a(lib_a-dtoa.o) (_Balloc)
c:/program files (x86)/gnu tools arm embedded/5.4 2016q3/bin/../lib/gcc/arm-none-eabi/5.4.1/../../../../arm-none-eabi/lib/armv7e-m\libg.a(lib_a-reent.o)
                              c:/program files (x86)/gnu tools arm embedded/5.4 2016q3/bin/../lib/gcc/arm-none-eabi/5.4.1/../../../../arm-none-eabi/lib/armv7e-m\libg.a(lib_a-sbrkr.o) (errno)
c:/program files (x86)/gnu tools arm embedded/5.4 2016q3/bin/../lib/gcc/arm-none-eabi/5.4.1/../../../../arm-none-eabi/lib/armv7e-m\libg.a(lib_a-svfiprintf.o)
                              c:/program files (x86)/gnu tools arm embedded/5.4 2016q3/bin/../lib/gcc/arm-none-eabi/5.4.1/../../../../arm-none-eabi/lib/armv7e-m\libg.a(lib_a-svfprintf.o) (__ssprint_r)
c:/program files (x86)/gnu tools arm embedded/5.4 2016q3/bin/../lib/gcc/arm-none-eabi/5.4.1/../../../../arm-none-eabi/lib/armv7e-m\libg.a(lib_a-callocr.o)
                              c:/program files (x86)/gnu tools arm embedded/5.4 2016q3/bin/../lib/gcc/arm-none-eabi/5.4.1/../../../../arm-none-eabi/lib/armv7e-m\libg.a(lib_a-mprec.o) (_calloc_r)
c:/program files (x86)/gnu tools arm embedded/5.4 2016q3/bin/../lib/gcc/arm-none-eabi/5.4.1/../../../../arm-none-eabi/lib/armv7e-m\libg.a(lib_a-locale.o)
                              c:/program files (x86)/gnu tools arm embedded/5.4 2016q3/bin/../lib/gcc/arm-none-eabi/5.4.1/../../../../arm-none-eabi/lib/armv7e-m\libg.a(lib_a-localeconv.o) (__global_locale)
c:/program files (x86)/gnu tools arm embedded/5.4 2016q3/bin/../lib/gcc/arm-none-eabi/5.4.1/../../../../arm-none-eabi/lib/armv7e-m\libg.a(lib_a-mbtowc_r.o)
                              c:/program files (x86)/gnu tools arm embedded/5.4 2016q3/bin/../lib/gcc/arm-none-eabi/5.4.1/../../../../arm-none-eabi/lib/armv7e-m\libg.a(lib_a-locale.o) (__ascii_mbtowc)
c:/program files (x86)/gnu tools arm embedded/5.4 2016q3/bin/../lib/gcc/arm-none-eabi/5.4.1/../../../../arm-none-eabi/lib/armv7e-m\libg.a(lib_a-memset.o)
                              c:/program files (x86)/gnu tools arm embedded/5.4 2016q3/bin/../lib/gcc/arm-none-eabi/5.4.1/../../../../arm-none-eabi/lib/armv7e-m\libg.a(lib_a-callocr.o) (memset)
c:/program files (x86)/gnu tools arm embedded/5.4 2016q3/bin/../lib/gcc/arm-none-eabi/5.4.1/../../../../arm-none-eabi/lib/armv7e-m\libg.a(lib_a-strcmp.o)
                              c:/program files (x86)/gnu tools arm embedded/5.4 2016q3/bin/../lib/gcc/arm-none-eabi/5.4.1/../../../../arm-none-eabi/lib/armv7e-m\libg.a(lib_a-locale.o) (strcmp)
c:/program files (x86)/gnu tools arm embedded/5.4 2016q3/bin/../lib/gcc/arm-none-eabi/5.4.1/../../../../arm-none-eabi/lib/armv7e-m\libg.a(lib_a-wctomb_r.o)
                              c:/program files (x86)/gnu tools arm embedded/5.4 2016q3/bin/../lib/gcc/arm-none-eabi/5.4.1/../../../../arm-none-eabi/lib/armv7e-m\libg.a(lib_a-locale.o) (__ascii_wctomb)
c:/program files (x86)/gnu tools arm embedded/5.4 2016q3/bin/../lib/gcc/arm-none-eabi/5.4.1/../../../../arm-none-eabi/lib/armv7e-m\libg.a(lib_a-ctype_.o)
                              c:/program files (x86)/gnu tools arm embedded/5.4 2016q3/bin/../lib/gcc/arm-none-eabi/5.4.1/../../../../arm-none-eabi/lib/armv7e-m\libg.a(lib_a-locale.o) (_ctype_)
c:/program files (x86)/gnu tools arm embedded/5.4 2016q3/bin/../lib/gcc/arm-none-eabi/5.4.1/armv7e-m\libgcc.a(_arm_unorddf2.o)
                              c:/program files (x86)/gnu tools arm embedded/5.4 2016q3/bin/../lib/gcc/arm-none-eabi/5.4.1/../../../../arm-none-eabi/lib/armv7e-m\libg.a(lib_a-svfprintf.o) (__aeabi_dcmpun)
c:/program files (x86)/gnu tools arm embedded/5.4 2016q3/bin/../lib/gcc/arm-none-eabi/5.4.1/armv7e-m\libgcc.a(_arm_fixdfsi.o)
                              c:/program files (x86)/gnu tools arm embedded/5.4 2016q3/bin/../lib/gcc/arm-none-eabi/5.4.1/../../../../arm-none-eabi/lib/armv7e-m\libg.a(lib_a-dtoa.o) (__aeabi_d2iz)
c:/program files (x86)/gnu tools arm embedded/5.4 2016q3/bin/../lib/gcc/arm-none-eabi/5.4.1/armv7e-m\libgcc.a(_aeabi_uldivmod.o)
                              c:/program files (x86)/gnu tools arm embedded/5.4 2016q3/bin/../lib/gcc/arm-none-eabi/5.4.1/../../../../arm-none-eabi/lib/armv7e-m\libg.a(lib_a-svfprintf.o) (__aeabi_uldivmod)
c:/program files (x86)/gnu tools arm embedded/5.4 2016q3/bin/../lib/gcc/arm-none-eabi/5.4.1/armv7e-m\libgcc.a(_udivmoddi4.o)
                              c:/program files (x86)/gnu tools arm embedded/5.4 2016q3/bin/../lib/gcc/arm-none-eabi/5.4.1/armv7e-m\libgcc.a(_aeabi_uldivmod.o) (__udivmoddi4)
c:/program files (x86)/gnu tools arm embedded/5.4 2016q3/bin/../lib/gcc/arm-none-eabi/5.4.1/armv7e-m\libgcc.a(_dvmd_tls.o)
                              c:/program files (x86)/gnu tools arm embedded/5.4 2016q3/bin/../lib/gcc/arm-none-eabi/5.4.1/armv7e-m\libgcc.a(_aeabi_uldivmod.o) (__aeabi_ldiv0)

Allocating common symbols
Common symbol       size              file

AudioSettings       0x4               ..\obj\preamp.o
mp3_buffer          0x4800            ..\obj\mp3.o
USBH_MSC_CSWData    0x10              ..\obj\usbh_msc_bot.o
errno               0x4               c:/program files (x86)/gnu tools arm embedded/5.4 2016q3/bin/../lib/gcc/arm-none-eabi/5.4.1/../../../../arm-none-eabi/lib/armv7e-m\libg.a(lib_a-reent.o)
MSC_Machine         0x20a             ..\obj\usbh_msc_core.o
USB_OTG_MSC_Core    0x5ac             ..\obj\tm_stm32f4_usb_msc_host.o
SD_Fs               0x234             ..\obj\mp3.o
USBH_CfgDesc        0x200             ..\obj\usbh_stdreq.o
USB_Fs              0x234             ..\obj\mp3.o
TM_UART5_Buffer     0x20              ..\obj\tm_stm32f4_usart.o
USBH_DataInBuffer   0x200             ..\obj\usbh_msc_scsi.o
USBH_MSC_Param      0x10              ..\obj\usbh_msc_scsi.o
USBH_MSC_BOTXferParam
                    0x10              ..\obj\usbh_msc_bot.o
hMP3Decoder         0x4               ..\obj\mp3.o
audio_help_buff     0x1e50            ..\obj\mp3.o
USBH_DataOutBuffer  0x200             ..\obj\usbh_msc_scsi.o
TM_USART6_Buffer    0x20              ..\obj\tm_stm32f4_usart.o
sys_delay           0x4               ..\obj\tm_stm32f4_delay.o
TM_USART3_Buffer    0x20              ..\obj\tm_stm32f4_usart.o
mp3_buffer2         0x4800            ..\obj\mp3.o
act_buff            0x1               ..\obj\mp3.o
TM_USART2_Buffer    0x20              ..\obj\tm_stm32f4_usart.o
MSC_Setup           0x8               ..\obj\usbh_msc_core.o
audio_buffer        0x1e50            ..\obj\mp3.o
TM_USART1_Buffer    0x20              ..\obj\tm_stm32f4_usart.o
TM_UART4_Buffer     0x20              ..\obj\tm_stm32f4_usart.o
TM_USB_MSCHOST_INT_Result
                    0x1               ..\obj\tm_stm32f4_usb_msc_host.o
USBH_MSC_CBWData    0x20              ..\obj\usbh_msc_bot.o
errbr               0x4               ..\obj\mp3.o
mult                0x4               ..\obj\tm_stm32f4_delay.o
USB_Host            0x148             ..\obj\tm_stm32f4_usb_msc_host.o
bytes_left          0x4               ..\obj\mp3.o
read_ptr            0x4               ..\obj\mp3.o
fil                 0x224             ..\obj\mp3.o
mp3FrameInfo        0x1c              ..\obj\mp3.o

Memory Configuration

Name             Origin             Length             Attributes
rom              0x08000000         0x00100000         xr
ram              0x20000000         0x00020000         xrw
ram1             0x10000000         0x00010000         xrw
*default*        0x00000000         0xffffffff

Linker script and memory map

                0x20020000                _eram = 0x20020000

.text           0x08000000    0x1b2d1
 *(.isr_vector)
 .isr_vector    0x08000000      0x188 ..\obj\startup_stm32f4xx.o
                0x08000000                g_pfnVectors
 *(.text*)
 .text          0x08000188        0x0 ..\obj\tm_stm32f4_fatfs.o
 .text.TM_FATFS_GetDriveSize
                0x08000188       0x54 ..\obj\tm_stm32f4_fatfs.o
                0x08000188                TM_FATFS_GetDriveSize
 .text.TM_FATFS_DriveSize
                0x080001dc       0x3c ..\obj\tm_stm32f4_fatfs.o
                0x080001dc                TM_FATFS_DriveSize
 .text.TM_FATFS_USBDriveSize
                0x08000218       0x3c ..\obj\tm_stm32f4_fatfs.o
                0x08000218                TM_FATFS_USBDriveSize
 .text.TM_FATFS_TruncateBeginning
                0x08000254       0xb4 ..\obj\tm_stm32f4_fatfs.o
                0x08000254                TM_FATFS_TruncateBeginning
 .text.TM_FATFS_CheckCardDetectPin
                0x08000308        0x4 ..\obj\tm_stm32f4_fatfs.o
                0x08000308                TM_FATFS_CheckCardDetectPin
 .text.TM_FATFS_SearchCallback
                0x0800030c        0x4 ..\obj\tm_stm32f4_fatfs.o
                0x0800030c                TM_FATFS_SearchCallback
 .text.scan_files
                0x08000310       0xc8 ..\obj\tm_stm32f4_fatfs.o
 .text.TM_FATFS_Search
                0x080003d8       0x48 ..\obj\tm_stm32f4_fatfs.o
                0x080003d8                TM_FATFS_Search
 .text          0x08000420        0x0 ..\obj\unicode.o
 .text          0x08000420        0x0 ..\obj\stm32f4xx_syscfg.o
 .text.SYSCFG_DeInit
                0x08000420       0x18 ..\obj\stm32f4xx_syscfg.o
                0x08000420                SYSCFG_DeInit
 .text.SYSCFG_MemoryRemapConfig
                0x08000438        0xc ..\obj\stm32f4xx_syscfg.o
                0x08000438                SYSCFG_MemoryRemapConfig
 .text.SYSCFG_EXTILineConfig
                0x08000444       0x2c ..\obj\stm32f4xx_syscfg.o
                0x08000444                SYSCFG_EXTILineConfig
 .text.SYSCFG_ETH_MediaInterfaceConfig
                0x08000470        0xc ..\obj\stm32f4xx_syscfg.o
                0x08000470                SYSCFG_ETH_MediaInterfaceConfig
 .text.SYSCFG_CompensationCellCmd
                0x0800047c        0xc ..\obj\stm32f4xx_syscfg.o
                0x0800047c                SYSCFG_CompensationCellCmd
 .text.SYSCFG_GetCompensationCellStatus
                0x08000488       0x10 ..\obj\stm32f4xx_syscfg.o
                0x08000488                SYSCFG_GetCompensationCellStatus
 .text          0x08000498        0x0 ..\obj\usb_core.o
 .text.USB_OTG_CoreReset
                0x08000498       0x68 ..\obj\usb_core.o
 .text.USB_OTG_WritePacket
                0x08000500       0x28 ..\obj\usb_core.o
                0x08000500                USB_OTG_WritePacket
 .text.USB_OTG_ReadPacket
                0x08000528       0x28 ..\obj\usb_core.o
                0x08000528                USB_OTG_ReadPacket
 .text.USB_OTG_SelectCore
                0x08000550       0xd4 ..\obj\usb_core.o
                0x08000550                USB_OTG_SelectCore
 .text.USB_OTG_CoreInit
                0x08000624       0x90 ..\obj\usb_core.o
                0x08000624                USB_OTG_CoreInit
 .text.USB_OTG_EnableGlobalInt
                0x080006b4       0x10 ..\obj\usb_core.o
                0x080006b4                USB_OTG_EnableGlobalInt
 .text.USB_OTG_DisableGlobalInt
                0x080006c4       0x10 ..\obj\usb_core.o
                0x080006c4                USB_OTG_DisableGlobalInt
 .text.USB_OTG_FlushTxFifo
                0x080006d4       0x4c ..\obj\usb_core.o
                0x080006d4                USB_OTG_FlushTxFifo
 .text.USB_OTG_FlushRxFifo
                0x08000720       0x44 ..\obj\usb_core.o
                0x08000720                USB_OTG_FlushRxFifo
 .text.USB_OTG_SetCurrentMode
                0x08000764       0x2c ..\obj\usb_core.o
                0x08000764                USB_OTG_SetCurrentMode
 .text.USB_OTG_GetMode
                0x08000790        0xc ..\obj\usb_core.o
                0x08000790                USB_OTG_GetMode
 .text.USB_OTG_IsDeviceMode
                0x0800079c       0x10 ..\obj\usb_core.o
                0x0800079c                USB_OTG_IsDeviceMode
 .text.USB_OTG_IsHostMode
                0x080007ac        0xc ..\obj\usb_core.o
                0x080007ac                USB_OTG_IsHostMode
 .text.USB_OTG_ReadCoreItr
                0x080007b8        0xc ..\obj\usb_core.o
                0x080007b8                USB_OTG_ReadCoreItr
 .text.USB_OTG_ReadOtgItr
                0x080007c4        0x8 ..\obj\usb_core.o
                0x080007c4                USB_OTG_ReadOtgItr
 .text.USB_OTG_IsEvenFrame
                0x080007cc       0x10 ..\obj\usb_core.o
                0x080007cc                USB_OTG_IsEvenFrame
 .text.USB_OTG_EnableHostInt
                0x080007dc       0x44 ..\obj\usb_core.o
                0x080007dc                USB_OTG_EnableHostInt
 .text.USB_OTG_InitFSLSPClkSel
                0x08000820        0xc ..\obj\usb_core.o
                0x08000820                USB_OTG_InitFSLSPClkSel
 .text.USB_OTG_ReadHPRT0
                0x0800082c        0xc ..\obj\usb_core.o
                0x0800082c                USB_OTG_ReadHPRT0
 .text.USB_OTG_DriveVbus
                0x08000838       0x40 ..\obj\usb_core.o
                0x08000838                USB_OTG_DriveVbus
 .text.USB_OTG_ReadHostAllChannels_intr
                0x08000878        0x8 ..\obj\usb_core.o
                0x08000878                USB_OTG_ReadHostAllChannels_intr
 .text.USB_OTG_ResetPort
                0x08000880       0x2c ..\obj\usb_core.o
                0x08000880                USB_OTG_ResetPort
 .text.USB_OTG_CoreInitHost
                0x080008ac       0xa0 ..\obj\usb_core.o
                0x080008ac                USB_OTG_CoreInitHost
 .text.USB_OTG_HC_Init
                0x0800094c       0xf8 ..\obj\usb_core.o
                0x0800094c                USB_OTG_HC_Init
 .text.USB_OTG_HC_StartXfer
                0x08000a44      0x140 ..\obj\usb_core.o
                0x08000a44                USB_OTG_HC_StartXfer
 .text.USB_OTG_HC_Halt
                0x08000b84       0x3c ..\obj\usb_core.o
                0x08000b84                USB_OTG_HC_Halt
 .text.USB_OTG_HC_DoPing
                0x08000bc0       0x30 ..\obj\usb_core.o
                0x08000bc0                USB_OTG_HC_DoPing
 .text.USB_OTG_StopHost
                0x08000bf0       0x48 ..\obj\usb_core.o
                0x08000bf0                USB_OTG_StopHost
 .text          0x08000c38        0x0 ..\obj\dqchan.o
 .text.DequantBlock
                0x08000c38      0x168 ..\obj\dqchan.o
 .text.xmp3fixpt_DequantChannel
                0x08000da0      0x284 ..\obj\dqchan.o
                0x08000da0                xmp3fixpt_DequantChannel
 .text          0x08001024        0x0 ..\obj\scalfact.o
 .text.xmp3fixpt_UnpackScaleFactors
                0x08001024      0x708 ..\obj\scalfact.o
                0x08001024                xmp3fixpt_UnpackScaleFactors
 .text          0x0800172c        0x0 ..\obj\pcm.o
 .text          0x0800172c        0x0 ..\obj\i2c.o
 .text.I2C_Init_Amp
                0x0800172c       0x50 ..\obj\i2c.o
                0x0800172c                I2C_Init_Amp
 .text.I2C_start
                0x0800177c       0x6c ..\obj\i2c.o
                0x0800177c                I2C_start
 .text.I2C_write
                0x080017e8       0x1c ..\obj\i2c.o
                0x080017e8                I2C_write
 .text.I2C_stop
                0x08001804        0xc ..\obj\i2c.o
                0x08001804                I2C_stop
 .text          0x08001810        0x0 ..\obj\mp3.o
 .text.Mp3OpenFile
                0x08001810       0x2c ..\obj\mp3.o
                0x08001810                Mp3OpenFile
 .text.MP3_Debug
                0x0800183c        0x4 ..\obj\mp3.o
                0x0800183c                MP3_Debug
 .text.Mp3SendBuffer
                0x08001840       0x64 ..\obj\mp3.o
                0x08001840                Mp3SendBuffer
 .text.Mp3MountDevices
                0x080018a4       0x4c ..\obj\mp3.o
                0x080018a4                Mp3MountDevices
 .text.Mp3ChangeTrack
                0x080018f0       0x18 ..\obj\mp3.o
                0x080018f0                Mp3ChangeTrack
 .text.Mp3PauseTrack
                0x08001908        0xc ..\obj\mp3.o
                0x08001908                Mp3PauseTrack
 .text.Mp3StartResumeTrack
                0x08001914       0x20 ..\obj\mp3.o
                0x08001914                Mp3StartResumeTrack
 .text.Mp3GetActTrackInd
                0x08001934        0xc ..\obj\mp3.o
                0x08001934                Mp3GetActTrackInd
 .text.Mp3NextTrack
                0x08001940       0x28 ..\obj\mp3.o
                0x08001940                Mp3NextTrack
 .text.Mp3Play  0x08001968      0x1f8 ..\obj\mp3.o
                0x08001968                Mp3Play
 .text.Mp3PrevTrack
                0x08001b60       0x20 ..\obj\mp3.o
                0x08001b60                Mp3PrevTrack
 .text          0x08001b80        0x0 ..\obj\bitstream.o
 .text.xmp3fixpt_SetBitstreamPointer
                0x08001b80        0xc ..\obj\bitstream.o
                0x08001b80                xmp3fixpt_SetBitstreamPointer
 .text.xmp3fixpt_GetBits
                0x08001b8c       0xb4 ..\obj\bitstream.o
                0x08001b8c                xmp3fixpt_GetBits
 .text.xmp3fixpt_CalcBitsUsed
                0x08001c40       0x10 ..\obj\bitstream.o
                0x08001c40                xmp3fixpt_CalcBitsUsed
 .text.xmp3fixpt_CheckPadBit
                0x08001c50       0x1c ..\obj\bitstream.o
                0x08001c50                xmp3fixpt_CheckPadBit
 .text.xmp3fixpt_UnpackFrameHeader
                0x08001c6c      0x1f8 ..\obj\bitstream.o
                0x08001c6c                xmp3fixpt_UnpackFrameHeader
 .text.xmp3fixpt_UnpackSideInfo
                0x08001e64      0x250 ..\obj\bitstream.o
                0x08001e64                xmp3fixpt_UnpackSideInfo
 .text          0x080020b4        0x0 ..\obj\dequant.o
 .text.xmp3fixpt_Dequantize
                0x080020b4      0x278 ..\obj\dequant.o
                0x080020b4                xmp3fixpt_Dequantize
 .text          0x0800232c        0x0 ..\obj\tm_stm32f4_exti.o
 .text.TM_EXTI_Attach
                0x0800232c      0x1d0 ..\obj\tm_stm32f4_exti.o
                0x0800232c                TM_EXTI_Attach
 .text.TM_EXTI_Detach
                0x080024fc       0x24 ..\obj\tm_stm32f4_exti.o
                0x080024fc                TM_EXTI_Detach
 .text.TM_EXTI_DeInit
                0x08002520       0x30 ..\obj\tm_stm32f4_exti.o
                0x08002520                TM_EXTI_DeInit
 .text.EXTI0_IRQHandler
                0x08002550       0x1c ..\obj\tm_stm32f4_exti.o
                0x08002550                EXTI0_IRQHandler
 .text.EXTI1_IRQHandler
                0x0800256c       0x1c ..\obj\tm_stm32f4_exti.o
                0x0800256c                EXTI1_IRQHandler
 .text.EXTI2_IRQHandler
                0x08002588       0x1c ..\obj\tm_stm32f4_exti.o
                0x08002588                EXTI2_IRQHandler
 .text.EXTI3_IRQHandler
                0x080025a4       0x1c ..\obj\tm_stm32f4_exti.o
                0x080025a4                EXTI3_IRQHandler
 .text.EXTI4_IRQHandler
                0x080025c0       0x1c ..\obj\tm_stm32f4_exti.o
                0x080025c0                EXTI4_IRQHandler
 .text.EXTI9_5_IRQHandler
                0x080025dc       0x70 ..\obj\tm_stm32f4_exti.o
                0x080025dc                EXTI9_5_IRQHandler
 .text.EXTI15_10_IRQHandler
                0x0800264c       0x8c ..\obj\tm_stm32f4_exti.o
                0x0800264c                EXTI15_10_IRQHandler
 .text          0x080026d8        0x0 ..\obj\hufftabs.o
 .text          0x080026d8        0x0 ..\obj\imdct.o
 .text.WinPrevious
                0x080026d8      0x128 ..\obj\imdct.o
 .text.FreqInvertRescale
                0x08002800      0x198 ..\obj\imdct.o
 .text.xmp3fixpt_IMDCT
                0x08002998      0xd58 ..\obj\imdct.o
                0x08002998                xmp3fixpt_IMDCT
 .text          0x080036f0        0x0 ..\obj\timer.o
 .text.Tim2Init
                0x080036f0       0x50 ..\obj\timer.o
                0x080036f0                Tim2Init
 .text.Tim2Start
                0x08003740       0x1c ..\obj\timer.o
                0x08003740                Tim2Start
 .text.Tim4Start
                0x0800375c       0x1c ..\obj\timer.o
                0x0800375c                Tim4Start
 .text.Tim2Stop
                0x08003778       0x1c ..\obj\timer.o
                0x08003778                Tim2Stop
 .text.Tim4Stop
                0x08003794       0x1c ..\obj\timer.o
                0x08003794                Tim4Stop
 .text.TIMER3_Configuration
                0x080037b0       0x68 ..\obj\timer.o
                0x080037b0                TIMER3_Configuration
 .text.Tim4Init
                0x08003818       0x54 ..\obj\timer.o
                0x08003818                Tim4Init
 .text          0x0800386c        0x0 ..\obj\usbh_hcs.o
 .text.USBH_Open_Channel
                0x0800386c       0x50 ..\obj\usbh_hcs.o
                0x0800386c                USBH_Open_Channel
 .text.USBH_Modify_Channel
                0x080038bc       0x48 ..\obj\usbh_hcs.o
                0x080038bc                USBH_Modify_Channel
 .text.USBH_Alloc_Channel
                0x08003904       0x44 ..\obj\usbh_hcs.o
                0x08003904                USBH_Alloc_Channel
 .text.USBH_Free_Channel
                0x08003948       0x18 ..\obj\usbh_hcs.o
                0x08003948                USBH_Free_Channel
 .text.USBH_DeAllocate_AllChannel
                0x08003960       0x20 ..\obj\usbh_hcs.o
                0x08003960                USBH_DeAllocate_AllChannel
 .text          0x08003980        0x0 ..\obj\stm32f4xx_usart.o
 .text.USART_DeInit
                0x08003980       0xbc ..\obj\stm32f4xx_usart.o
                0x08003980                USART_DeInit
 .text.USART_Init
                0x08003a3c       0xc0 ..\obj\stm32f4xx_usart.o
                0x08003a3c                USART_Init
 .text.USART_StructInit
                0x08003afc       0x18 ..\obj\stm32f4xx_usart.o
                0x08003afc                USART_StructInit
 .text.USART_ClockInit
                0x08003b14       0x24 ..\obj\stm32f4xx_usart.o
                0x08003b14                USART_ClockInit
 .text.USART_ClockStructInit
                0x08003b38        0xc ..\obj\stm32f4xx_usart.o
                0x08003b38                USART_ClockStructInit
 .text.USART_Cmd
                0x08003b44       0x1c ..\obj\stm32f4xx_usart.o
                0x08003b44                USART_Cmd
 .text.USART_SetPrescaler
                0x08003b60       0x14 ..\obj\stm32f4xx_usart.o
                0x08003b60                USART_SetPrescaler
 .text.USART_OverSampling8Cmd
                0x08003b74       0x1c ..\obj\stm32f4xx_usart.o
                0x08003b74                USART_OverSampling8Cmd
 .text.USART_OneBitMethodCmd
                0x08003b90       0x1c ..\obj\stm32f4xx_usart.o
                0x08003b90                USART_OneBitMethodCmd
 .text.USART_SendData
                0x08003bac        0x8 ..\obj\stm32f4xx_usart.o
                0x08003bac                USART_SendData
 .text.USART_ReceiveData
                0x08003bb4        0x8 ..\obj\stm32f4xx_usart.o
                0x08003bb4                USART_ReceiveData
 .text.USART_SetAddress
                0x08003bbc       0x18 ..\obj\stm32f4xx_usart.o
                0x08003bbc                USART_SetAddress
 .text.USART_ReceiverWakeUpCmd
                0x08003bd4       0x1c ..\obj\stm32f4xx_usart.o
                0x08003bd4                USART_ReceiverWakeUpCmd
 .text.USART_WakeUpConfig
                0x08003bf0       0x18 ..\obj\stm32f4xx_usart.o
                0x08003bf0                USART_WakeUpConfig
 .text.USART_LINBreakDetectLengthConfig
                0x08003c08       0x18 ..\obj\stm32f4xx_usart.o
                0x08003c08                USART_LINBreakDetectLengthConfig
 .text.USART_LINCmd
                0x08003c20       0x1c ..\obj\stm32f4xx_usart.o
                0x08003c20                USART_LINCmd
 .text.USART_SendBreak
                0x08003c3c        0xc ..\obj\stm32f4xx_usart.o
                0x08003c3c                USART_SendBreak
 .text.USART_HalfDuplexCmd
                0x08003c48       0x1c ..\obj\stm32f4xx_usart.o
                0x08003c48                USART_HalfDuplexCmd
 .text.USART_SetGuardTime
                0x08003c64       0x14 ..\obj\stm32f4xx_usart.o
                0x08003c64                USART_SetGuardTime
 .text.USART_SmartCardCmd
                0x08003c78       0x1c ..\obj\stm32f4xx_usart.o
                0x08003c78                USART_SmartCardCmd
 .text.USART_SmartCardNACKCmd
                0x08003c94       0x1c ..\obj\stm32f4xx_usart.o
                0x08003c94                USART_SmartCardNACKCmd
 .text.USART_IrDAConfig
                0x08003cb0       0x18 ..\obj\stm32f4xx_usart.o
                0x08003cb0                USART_IrDAConfig
 .text.USART_IrDACmd
                0x08003cc8       0x1c ..\obj\stm32f4xx_usart.o
                0x08003cc8                USART_IrDACmd
 .text.USART_DMACmd
                0x08003ce4       0x18 ..\obj\stm32f4xx_usart.o
                0x08003ce4                USART_DMACmd
 .text.USART_ITConfig
                0x08003cfc       0x38 ..\obj\stm32f4xx_usart.o
                0x08003cfc                USART_ITConfig
 .text.USART_GetFlagStatus
                0x08003d34        0xc ..\obj\stm32f4xx_usart.o
                0x08003d34                USART_GetFlagStatus
 .text.USART_ClearFlag
                0x08003d40        0x8 ..\obj\stm32f4xx_usart.o
                0x08003d40                USART_ClearFlag
 .text.USART_GetITStatus
                0x08003d48       0x44 ..\obj\stm32f4xx_usart.o
                0x08003d48                USART_GetITStatus
 .text.USART_ClearITPendingBit
                0x08003d8c       0x10 ..\obj\stm32f4xx_usart.o
                0x08003d8c                USART_ClearITPendingBit
 .text          0x08003d9c        0x0 ..\obj\usbh_stdreq.o
 .text.USBH_GetDescriptor
                0x08003d9c       0x30 ..\obj\usbh_stdreq.o
                0x08003d9c                USBH_GetDescriptor
 .text.USBH_Get_DevDesc
                0x08003dcc       0xb4 ..\obj\usbh_stdreq.o
                0x08003dcc                USBH_Get_DevDesc
 .text.USBH_Get_StringDesc
                0x08003e80       0x58 ..\obj\usbh_stdreq.o
                0x08003e80                USBH_Get_StringDesc
 .text.USBH_Get_CfgDesc
                0x08003ed8      0x1e8 ..\obj\usbh_stdreq.o
                0x08003ed8                USBH_Get_CfgDesc
 .text.USBH_SetAddress
                0x080040c0       0x1c ..\obj\usbh_stdreq.o
                0x080040c0                USBH_SetAddress
 .text.USBH_SetCfg
                0x080040dc       0x1c ..\obj\usbh_stdreq.o
                0x080040dc                USBH_SetCfg
 .text.USBH_SetInterface
                0x080040f8       0x1c ..\obj\usbh_stdreq.o
                0x080040f8                USBH_SetInterface
 .text.USBH_ClrFeature
                0x08004114       0x34 ..\obj\usbh_stdreq.o
                0x08004114                USBH_ClrFeature
 .text.USBH_GetNextDesc
                0x08004148       0x10 ..\obj\usbh_stdreq.o
                0x08004148                USBH_GetNextDesc
 .text          0x08004158        0x0 ..\obj\mp3tabs.o
 .text          0x08004158        0x0 ..\obj\str.o
 .text.StrCmp   0x08004158       0x38 ..\obj\str.o
                0x08004158                StrCmp
 .text.StrLen   0x08004190       0x18 ..\obj\str.o
                0x08004190                StrLen
 .text.StrCopy  0x080041a8       0x18 ..\obj\str.o
                0x080041a8                StrCopy
 .text.StrFillSpace
                0x080041c0       0x1c ..\obj\str.o
                0x080041c0                StrFillSpace
 .text          0x080041dc        0x0 ..\obj\subband.o
 .text.xmp3fixpt_Subband
                0x080041dc      0x128 ..\obj\subband.o
                0x080041dc                xmp3fixpt_Subband
 .text          0x08004304        0x0 ..\obj\diskio.o
 .text.TM_FATFS_SD_disk_initialize
                0x08004304        0x4 ..\obj\diskio.o
 .text.TM_FATFS_USB_disk_initialize
                0x08004308        0x4 ..\obj\diskio.o
 .text.TM_FATFS_SDRAM_disk_initialize
                0x0800430c        0x4 ..\obj\diskio.o
                0x0800430c                TM_FATFS_SDRAM_disk_initialize
 .text.TM_FATFS_SPI_FLASH_disk_initialize
                0x08004310        0x4 ..\obj\diskio.o
                0x08004310                TM_FATFS_SPI_FLASH_disk_initialize
 .text.TM_FATFS_SD_disk_status
                0x08004314        0x4 ..\obj\diskio.o
 .text.TM_FATFS_USB_disk_status
                0x08004318        0x4 ..\obj\diskio.o
 .text.TM_FATFS_SDRAM_disk_status
                0x0800431c        0x4 ..\obj\diskio.o
                0x0800431c                TM_FATFS_SDRAM_disk_status
 .text.TM_FATFS_SPI_FLASH_disk_status
                0x08004320        0x4 ..\obj\diskio.o
                0x08004320                TM_FATFS_SPI_FLASH_disk_status
 .text.TM_FATFS_SD_disk_ioctl
                0x08004324        0x4 ..\obj\diskio.o
 .text.TM_FATFS_USB_disk_ioctl
                0x08004328        0x4 ..\obj\diskio.o
 .text.TM_FATFS_SDRAM_disk_ioctl
                0x0800432c        0x4 ..\obj\diskio.o
                0x0800432c                TM_FATFS_SDRAM_disk_ioctl
 .text.TM_FATFS_SPI_FLASH_disk_ioctl
                0x08004330        0x4 ..\obj\diskio.o
                0x08004330                TM_FATFS_SPI_FLASH_disk_ioctl
 .text.TM_FATFS_SD_disk_read
                0x08004334        0x4 ..\obj\diskio.o
 .text.TM_FATFS_USB_disk_read
                0x08004338        0x4 ..\obj\diskio.o
 .text.TM_FATFS_SDRAM_disk_read
                0x0800433c        0x4 ..\obj\diskio.o
                0x0800433c                TM_FATFS_SDRAM_disk_read
 .text.TM_FATFS_SPI_FLASH_disk_read
                0x08004340        0x4 ..\obj\diskio.o
                0x08004340                TM_FATFS_SPI_FLASH_disk_read
 .text.TM_FATFS_SD_disk_write
                0x08004344        0x4 ..\obj\diskio.o
 .text.TM_FATFS_USB_disk_write
                0x08004348        0x4 ..\obj\diskio.o
 .text.TM_FATFS_SDRAM_disk_write
                0x0800434c        0x4 ..\obj\diskio.o
                0x0800434c                TM_FATFS_SDRAM_disk_write
 .text.TM_FATFS_SPI_FLASH_disk_write
                0x08004350        0x4 ..\obj\diskio.o
                0x08004350                TM_FATFS_SPI_FLASH_disk_write
 .text.TM_FATFS_AddDriver
                0x08004354       0x38 ..\obj\diskio.o
                0x08004354                TM_FATFS_AddDriver
 .text.disk_initialize
                0x0800438c       0x1c ..\obj\diskio.o
                0x0800438c                disk_initialize
 .text.disk_status
                0x080043a8       0x1c ..\obj\diskio.o
                0x080043a8                disk_status
 .text.disk_read
                0x080043c4       0x30 ..\obj\diskio.o
                0x080043c4                disk_read
 .text.disk_write
                0x080043f4       0x30 ..\obj\diskio.o
                0x080043f4                disk_write
 .text.disk_ioctl
                0x08004424       0x20 ..\obj\diskio.o
                0x08004424                disk_ioctl
 .text.get_fattime
                0x08004444        0x8 ..\obj\diskio.o
                0x08004444                get_fattime
 .text.TM_FATFS_SD_SDIO_disk_initialize
                0x0800444c        0x4 ..\obj\diskio.o
                0x0800444c                TM_FATFS_SD_SDIO_disk_initialize
 .text.TM_FATFS_SD_SDIO_disk_status
                0x08004450        0x4 ..\obj\diskio.o
                0x08004450                TM_FATFS_SD_SDIO_disk_status
 .text.TM_FATFS_SD_SDIO_disk_ioctl
                0x08004454        0x4 ..\obj\diskio.o
                0x08004454                TM_FATFS_SD_SDIO_disk_ioctl
 .text.TM_FATFS_SD_SDIO_disk_read
                0x08004458        0x4 ..\obj\diskio.o
                0x08004458                TM_FATFS_SD_SDIO_disk_read
 .text.TM_FATFS_SD_SDIO_disk_write
                0x0800445c        0x4 ..\obj\diskio.o
                0x0800445c                TM_FATFS_SD_SDIO_disk_write
 .text          0x08004460        0x0 ..\obj\startup_stm32f4xx.o
 .text.Default_Handler
                0x08004460        0x4 ..\obj\startup_stm32f4xx.o
                0x08004460                RTC_Alarm_IRQHandler
                0x08004460                HASH_RNG_IRQHandler
                0x08004460                TIM8_CC_IRQHandler
                0x08004460                DebugMon_Handler
                0x08004460                TIM1_CC_IRQHandler
                0x08004460                DMA2_Stream5_IRQHandler
                0x08004460                HardFault_Handler
                0x08004460                DMA1_Stream5_IRQHandler
                0x08004460                PVD_IRQHandler
                0x08004460                SDIO_IRQHandler
                0x08004460                TAMP_STAMP_IRQHandler
                0x08004460                PendSV_Handler
                0x08004460                NMI_Handler
                0x08004460                CAN2_RX1_IRQHandler
                0x08004460                TIM8_TRG_COM_TIM14_IRQHandler
                0x08004460                TIM1_UP_TIM10_IRQHandler
                0x08004460                TIM8_UP_TIM13_IRQHandler
                0x08004460                I2C3_ER_IRQHandler
                0x08004460                I2C2_EV_IRQHandler
                0x08004460                DMA1_Stream2_IRQHandler
                0x08004460                CAN1_RX0_IRQHandler
                0x08004460                FPU_IRQHandler
                0x08004460                OTG_HS_WKUP_IRQHandler
                0x08004460                UsageFault_Handler
                0x08004460                CAN2_SCE_IRQHandler
                0x08004460                DMA2_Stream2_IRQHandler
                0x08004460                SPI1_IRQHandler
                0x08004460                TIM6_DAC_IRQHandler
                0x08004460                TIM1_BRK_TIM9_IRQHandler
                0x08004460                DCMI_IRQHandler
                0x08004460                CAN2_RX0_IRQHandler
                0x08004460                DMA2_Stream3_IRQHandler
                0x08004460                CRYP_IRQHandler
                0x08004460                CAN1_RX1_IRQHandler
                0x08004460                DMA2_Stream0_IRQHandler
                0x08004460                I2C1_EV_IRQHandler
                0x08004460                DMA1_Stream6_IRQHandler
                0x08004460                DMA1_Stream1_IRQHandler
                0x08004460                TIM3_IRQHandler
                0x08004460                RCC_IRQHandler
                0x08004460                TIM8_BRK_TIM12_IRQHandler
                0x08004460                ADC_IRQHandler
                0x08004460                TIM7_IRQHandler
                0x08004460                CAN2_TX_IRQHandler
                0x08004460                TIM5_IRQHandler
                0x08004460                DMA2_Stream7_IRQHandler
                0x08004460                I2C3_EV_IRQHandler
                0x08004460                RTC_WKUP_IRQHandler
                0x08004460                ETH_WKUP_IRQHandler
                0x08004460                SPI2_IRQHandler
                0x08004460                OTG_HS_EP1_IN_IRQHandler
                0x08004460                MemManage_Handler
                0x08004460                DMA1_Stream0_IRQHandler
                0x08004460                CAN1_TX_IRQHandler
                0x08004460                SVC_Handler
                0x08004460                FSMC_IRQHandler
                0x08004460                ETH_IRQHandler
                0x08004460                OTG_HS_EP1_OUT_IRQHandler
                0x08004460                WWDG_IRQHandler
                0x08004460                OTG_FS_WKUP_IRQHandler
                0x08004460                TIM1_TRG_COM_TIM11_IRQHandler
                0x08004460                OTG_HS_IRQHandler
                0x08004460                I2C2_ER_IRQHandler
                0x08004460                DMA2_Stream1_IRQHandler
                0x08004460                CAN1_SCE_IRQHandler
                0x08004460                FLASH_IRQHandler
                0x08004460                DMA2_Stream4_IRQHandler
                0x08004460                BusFault_Handler
                0x08004460                SPI3_IRQHandler
                0x08004460                DMA1_Stream4_IRQHandler
                0x08004460                I2C1_ER_IRQHandler
                0x08004460                DMA2_Stream6_IRQHandler
                0x08004460                DMA1_Stream3_IRQHandler
 .text.Default_Reset_Handler
                0x08004464       0x50 ..\obj\startup_stm32f4xx.o
                0x08004464                Default_Reset_Handler
                0x08004464                Reset_Handler
 .text          0x080044b4        0x0 ..\obj\fatfs_usb.o
 .text.TM_FATFS_USB_disk_initialize
                0x080044b4       0x3c ..\obj\fatfs_usb.o
                0x080044b4                TM_FATFS_USB_disk_initialize
 .text.TM_FATFS_USB_disk_status
                0x080044f0        0xc ..\obj\fatfs_usb.o
                0x080044f0                TM_FATFS_USB_disk_status
 .text.TM_FATFS_USB_disk_read
                0x080044fc       0x88 ..\obj\fatfs_usb.o
                0x080044fc                TM_FATFS_USB_disk_read
 .text.TM_FATFS_USB_disk_write
                0x08004584       0x94 ..\obj\fatfs_usb.o
                0x08004584                TM_FATFS_USB_disk_write
 .text.TM_FATFS_USB_disk_ioctl
                0x08004618       0x48 ..\obj\fatfs_usb.o
                0x08004618                TM_FATFS_USB_disk_ioctl
 .text          0x08004660        0x0 ..\obj\mp3dec.o
 .text.MP3ClearBadFrame
                0x08004660       0x48 ..\obj\mp3dec.o
 .text.MP3InitDecoder
                0x080046a8        0x8 ..\obj\mp3dec.o
                0x080046a8                MP3InitDecoder
 .text.MP3FreeDecoder
                0x080046b0        0xc ..\obj\mp3dec.o
                0x080046b0                MP3FreeDecoder
 .text.MP3FindSyncWord
                0x080046bc       0x34 ..\obj\mp3dec.o
                0x080046bc                MP3FindSyncWord
 .text.MP3GetLastFrameInfo
                0x080046f0       0x68 ..\obj\mp3dec.o
                0x080046f0                MP3GetLastFrameInfo
 .text.MP3GetNextFrameInfo
                0x08004758       0x3c ..\obj\mp3dec.o
                0x08004758                MP3GetNextFrameInfo
 .text.MP3Decode
                0x08004794      0x368 ..\obj\mp3dec.o
                0x08004794                MP3Decode
 .text          0x08004afc        0x0 ..\obj\main.o
 .text.main     0x08004afc       0x84 ..\obj\main.o
                0x08004afc                main
 .text          0x08004b80        0x0 ..\obj\stm32f4xx_rcc.o
 .text.RCC_DeInit
                0x08004b80       0x34 ..\obj\stm32f4xx_rcc.o
                0x08004b80                RCC_DeInit
 .text.RCC_HSEConfig
                0x08004bb4       0x10 ..\obj\stm32f4xx_rcc.o
                0x08004bb4                RCC_HSEConfig
 .text.RCC_AdjustHSICalibrationValue
                0x08004bc4       0x14 ..\obj\stm32f4xx_rcc.o
                0x08004bc4                RCC_AdjustHSICalibrationValue
 .text.RCC_HSICmd
                0x08004bd8        0xc ..\obj\stm32f4xx_rcc.o
                0x08004bd8                RCC_HSICmd
 .text.RCC_LSEConfig
                0x08004be4       0x28 ..\obj\stm32f4xx_rcc.o
                0x08004be4                RCC_LSEConfig
 .text.RCC_LSICmd
                0x08004c0c        0xc ..\obj\stm32f4xx_rcc.o
                0x08004c0c                RCC_LSICmd
 .text.RCC_PLLConfig
                0x08004c18       0x24 ..\obj\stm32f4xx_rcc.o
                0x08004c18                RCC_PLLConfig
 .text.RCC_PLLCmd
                0x08004c3c        0xc ..\obj\stm32f4xx_rcc.o
                0x08004c3c                RCC_PLLCmd
 .text.RCC_PLLI2SConfig
                0x08004c48       0x14 ..\obj\stm32f4xx_rcc.o
                0x08004c48                RCC_PLLI2SConfig
 .text.RCC_PLLI2SCmd
                0x08004c5c        0xc ..\obj\stm32f4xx_rcc.o
                0x08004c5c                RCC_PLLI2SCmd
 .text.RCC_ClockSecuritySystemCmd
                0x08004c68        0xc ..\obj\stm32f4xx_rcc.o
                0x08004c68                RCC_ClockSecuritySystemCmd
 .text.RCC_MCO1Config
                0x08004c74       0x14 ..\obj\stm32f4xx_rcc.o
                0x08004c74                RCC_MCO1Config
 .text.RCC_MCO2Config
                0x08004c88       0x14 ..\obj\stm32f4xx_rcc.o
                0x08004c88                RCC_MCO2Config
 .text.RCC_SYSCLKConfig
                0x08004c9c       0x14 ..\obj\stm32f4xx_rcc.o
                0x08004c9c                RCC_SYSCLKConfig
 .text.RCC_GetSYSCLKSource
                0x08004cb0       0x10 ..\obj\stm32f4xx_rcc.o
                0x08004cb0                RCC_GetSYSCLKSource
 .text.RCC_HCLKConfig
                0x08004cc0       0x14 ..\obj\stm32f4xx_rcc.o
                0x08004cc0                RCC_HCLKConfig
 .text.RCC_PCLK1Config
                0x08004cd4       0x14 ..\obj\stm32f4xx_rcc.o
                0x08004cd4                RCC_PCLK1Config
 .text.RCC_PCLK2Config
                0x08004ce8       0x14 ..\obj\stm32f4xx_rcc.o
                0x08004ce8                RCC_PCLK2Config
 .text.RCC_GetClocksFreq
                0x08004cfc       0xa4 ..\obj\stm32f4xx_rcc.o
                0x08004cfc                RCC_GetClocksFreq
 .text.RCC_RTCCLKConfig
                0x08004da0       0x30 ..\obj\stm32f4xx_rcc.o
                0x08004da0                RCC_RTCCLKConfig
 .text.RCC_RTCCLKCmd
                0x08004dd0        0xc ..\obj\stm32f4xx_rcc.o
                0x08004dd0                RCC_RTCCLKCmd
 .text.RCC_BackupResetCmd
                0x08004ddc        0xc ..\obj\stm32f4xx_rcc.o
                0x08004ddc                RCC_BackupResetCmd
 .text.RCC_I2SCLKConfig
                0x08004de8        0xc ..\obj\stm32f4xx_rcc.o
                0x08004de8                RCC_I2SCLKConfig
 .text.RCC_AHB1PeriphClockCmd
                0x08004df4       0x1c ..\obj\stm32f4xx_rcc.o
                0x08004df4                RCC_AHB1PeriphClockCmd
 .text.RCC_AHB2PeriphClockCmd
                0x08004e10       0x1c ..\obj\stm32f4xx_rcc.o
                0x08004e10                RCC_AHB2PeriphClockCmd
 .text.RCC_AHB3PeriphClockCmd
                0x08004e2c       0x1c ..\obj\stm32f4xx_rcc.o
                0x08004e2c                RCC_AHB3PeriphClockCmd
 .text.RCC_APB1PeriphClockCmd
                0x08004e48       0x1c ..\obj\stm32f4xx_rcc.o
                0x08004e48                RCC_APB1PeriphClockCmd
 .text.RCC_APB2PeriphClockCmd
                0x08004e64       0x1c ..\obj\stm32f4xx_rcc.o
                0x08004e64                RCC_APB2PeriphClockCmd
 .text.RCC_AHB1PeriphResetCmd
                0x08004e80       0x1c ..\obj\stm32f4xx_rcc.o
                0x08004e80                RCC_AHB1PeriphResetCmd
 .text.RCC_AHB2PeriphResetCmd
                0x08004e9c       0x1c ..\obj\stm32f4xx_rcc.o
                0x08004e9c                RCC_AHB2PeriphResetCmd
 .text.RCC_AHB3PeriphResetCmd
                0x08004eb8       0x1c ..\obj\stm32f4xx_rcc.o
                0x08004eb8                RCC_AHB3PeriphResetCmd
 .text.RCC_APB1PeriphResetCmd
                0x08004ed4       0x1c ..\obj\stm32f4xx_rcc.o
                0x08004ed4                RCC_APB1PeriphResetCmd
 .text.RCC_APB2PeriphResetCmd
                0x08004ef0       0x1c ..\obj\stm32f4xx_rcc.o
                0x08004ef0                RCC_APB2PeriphResetCmd
 .text.RCC_AHB1PeriphClockLPModeCmd
                0x08004f0c       0x1c ..\obj\stm32f4xx_rcc.o
                0x08004f0c                RCC_AHB1PeriphClockLPModeCmd
 .text.RCC_AHB2PeriphClockLPModeCmd
                0x08004f28       0x1c ..\obj\stm32f4xx_rcc.o
                0x08004f28                RCC_AHB2PeriphClockLPModeCmd
 .text.RCC_AHB3PeriphClockLPModeCmd
                0x08004f44       0x1c ..\obj\stm32f4xx_rcc.o
                0x08004f44                RCC_AHB3PeriphClockLPModeCmd
 .text.RCC_APB1PeriphClockLPModeCmd
                0x08004f60       0x1c ..\obj\stm32f4xx_rcc.o
                0x08004f60                RCC_APB1PeriphClockLPModeCmd
 .text.RCC_APB2PeriphClockLPModeCmd
                0x08004f7c       0x1c ..\obj\stm32f4xx_rcc.o
                0x08004f7c                RCC_APB2PeriphClockLPModeCmd
 .text.RCC_ITConfig
                0x08004f98       0x1c ..\obj\stm32f4xx_rcc.o
                0x08004f98                RCC_ITConfig
 .text.RCC_GetFlagStatus
                0x08004fb4       0x28 ..\obj\stm32f4xx_rcc.o
                0x08004fb4                RCC_GetFlagStatus
 .text.RCC_WaitForHSEStartUp
                0x08004fdc       0x34 ..\obj\stm32f4xx_rcc.o
                0x08004fdc                RCC_WaitForHSEStartUp
 .text.RCC_ClearFlag
                0x08005010       0x10 ..\obj\stm32f4xx_rcc.o
                0x08005010                RCC_ClearFlag
 .text.RCC_GetITStatus
                0x08005020       0x14 ..\obj\stm32f4xx_rcc.o
                0x08005020                RCC_GetITStatus
 .text.RCC_ClearITPendingBit
                0x08005034        0xc ..\obj\stm32f4xx_rcc.o
                0x08005034                RCC_ClearITPendingBit
 .text          0x08005040        0x0 ..\obj\tm_stm32f4_usart.o
 .text.TM_USART_INT_InsertToBuffer
                0x08005040       0x28 ..\obj\tm_stm32f4_usart.o
                0x08005040                TM_USART_INT_InsertToBuffer
 .text.TM_USART_InitCustomPinsCallback
                0x08005068        0x4 ..\obj\tm_stm32f4_usart.o
                0x08005068                TM_USART_InitCustomPinsCallback
 .text.TM_USART_INT_GetUsart
                0x0800506c       0x60 ..\obj\tm_stm32f4_usart.o
                0x0800506c                TM_USART_INT_GetUsart
 .text.TM_USART_Getc
                0x080050cc       0x64 ..\obj\tm_stm32f4_usart.o
                0x080050cc                TM_USART_Getc
 .text.TM_USART_BufferEmpty
                0x08005130       0x1c ..\obj\tm_stm32f4_usart.o
                0x08005130                TM_USART_BufferEmpty
 .text.TM_USART_BufferFull
                0x0800514c       0x14 ..\obj\tm_stm32f4_usart.o
                0x0800514c                TM_USART_BufferFull
 .text.TM_USART_ClearBuffer
                0x08005160       0x10 ..\obj\tm_stm32f4_usart.o
                0x08005160                TM_USART_ClearBuffer
 .text.TM_USART_SetCustomStringEndCharacter
                0x08005170        0xc ..\obj\tm_stm32f4_usart.o
                0x08005170                TM_USART_SetCustomStringEndCharacter
 .text.TM_USART_FindCharacter
                0x0800517c       0x38 ..\obj\tm_stm32f4_usart.o
                0x0800517c                TM_USART_FindCharacter
 .text.TM_USART_Gets
                0x080051b4       0x60 ..\obj\tm_stm32f4_usart.o
                0x080051b4                TM_USART_Gets
 .text.TM_USART_Puts
                0x08005214       0x38 ..\obj\tm_stm32f4_usart.o
                0x08005214                TM_USART_Puts
 .text.TM_USART_Send
                0x0800524c       0x40 ..\obj\tm_stm32f4_usart.o
                0x0800524c                TM_USART_Send
 .text.TM_USART_INT_GetSubPriority
                0x0800528c       0x44 ..\obj\tm_stm32f4_usart.o
                0x0800528c                TM_USART_INT_GetSubPriority
 .text.TM_USART1_InitPins
                0x080052d0       0x58 ..\obj\tm_stm32f4_usart.o
                0x080052d0                TM_USART1_InitPins
 .text.TM_USART2_InitPins
                0x08005328       0x54 ..\obj\tm_stm32f4_usart.o
                0x08005328                TM_USART2_InitPins
 .text.TM_USART3_InitPins
                0x0800537c       0x7c ..\obj\tm_stm32f4_usart.o
                0x0800537c                TM_USART3_InitPins
 .text.TM_UART4_InitPins
                0x080053f8       0x54 ..\obj\tm_stm32f4_usart.o
                0x080053f8                TM_UART4_InitPins
 .text.TM_UART5_InitPins
                0x0800544c       0x4c ..\obj\tm_stm32f4_usart.o
                0x0800544c                TM_UART5_InitPins
 .text.TM_USART6_InitPins
                0x08005498       0x58 ..\obj\tm_stm32f4_usart.o
                0x08005498                TM_USART6_InitPins
 .text.TM_USART_INT_Init
                0x080054f0      0x15c ..\obj\tm_stm32f4_usart.o
 .text.TM_USART_Init
                0x0800564c       0xd4 ..\obj\tm_stm32f4_usart.o
                0x0800564c                TM_USART_Init
 .text.TM_USART_InitWithFlowControl
                0x08005720       0xdc ..\obj\tm_stm32f4_usart.o
                0x08005720                TM_USART_InitWithFlowControl
 .text.USART1_IRQHandler
                0x080057fc       0x24 ..\obj\tm_stm32f4_usart.o
                0x080057fc                USART1_IRQHandler
 .text.USART2_IRQHandler
                0x08005820       0x24 ..\obj\tm_stm32f4_usart.o
                0x08005820                USART2_IRQHandler
 .text.USART3_IRQHandler
                0x08005844       0x24 ..\obj\tm_stm32f4_usart.o
                0x08005844                USART3_IRQHandler
 .text.UART4_IRQHandler
                0x08005868       0x24 ..\obj\tm_stm32f4_usart.o
                0x08005868                UART4_IRQHandler
 .text.UART5_IRQHandler
                0x0800588c       0x24 ..\obj\tm_stm32f4_usart.o
                0x0800588c                UART5_IRQHandler
 .text.USART6_IRQHandler
                0x080058b0       0x24 ..\obj\tm_stm32f4_usart.o
                0x080058b0                USART6_IRQHandler
 .text          0x080058d4        0x0 ..\obj\tm_stm32f4_rotary_encoder.o
 .text.TM_RE_Init
                0x080058d4       0x40 ..\obj\tm_stm32f4_rotary_encoder.o
                0x080058d4                TM_RE_Init
 .text.TM_RE_Get
                0x08005914       0x24 ..\obj\tm_stm32f4_rotary_encoder.o
                0x08005914                TM_RE_Get
 .text.TM_RE_SetMode
                0x08005938        0x4 ..\obj\tm_stm32f4_rotary_encoder.o
                0x08005938                TM_RE_SetMode
 .text.TM_RE_Process
                0x0800593c       0x4c ..\obj\tm_stm32f4_rotary_encoder.o
                0x0800593c                TM_RE_Process
 .text          0x08005988        0x0 ..\obj\fatfs_sd.o
 .text.wait_ready
                0x08005988       0x68 ..\obj\fatfs_sd.o
 .text.deselect
                0x080059f0       0x58 ..\obj\fatfs_sd.o
 .text.select   0x08005a48       0x70 ..\obj\fatfs_sd.o
 .text.xmit_datablock
                0x08005ab8      0x14c ..\obj\fatfs_sd.o
 .text.rcvr_datablock
                0x08005c04      0x100 ..\obj\fatfs_sd.o
 .text.send_cmd
                0x08005d04      0x28c ..\obj\fatfs_sd.o
 .text.TM_FATFS_InitPins
                0x08005f90       0x20 ..\obj\fatfs_sd.o
                0x08005f90                TM_FATFS_InitPins
 .text.TM_FATFS_Detect
                0x08005fb0        0x4 ..\obj\fatfs_sd.o
                0x08005fb0                TM_FATFS_Detect
 .text.TM_FATFS_WriteEnabled
                0x08005fb4        0x4 ..\obj\fatfs_sd.o
                0x08005fb4                TM_FATFS_WriteEnabled
 .text.TM_FATFS_SD_disk_initialize
                0x08005fb8      0x250 ..\obj\fatfs_sd.o
                0x08005fb8                TM_FATFS_SD_disk_initialize
 .text.TM_FATFS_SD_disk_status
                0x08006208       0x14 ..\obj\fatfs_sd.o
                0x08006208                TM_FATFS_SD_disk_status
 .text.TM_FATFS_SD_disk_read
                0x0800621c       0x78 ..\obj\fatfs_sd.o
                0x0800621c                TM_FATFS_SD_disk_read
 .text.TM_FATFS_SD_disk_write
                0x08006294       0x9c ..\obj\fatfs_sd.o
                0x08006294                TM_FATFS_SD_disk_write
 .text.TM_FATFS_SD_disk_ioctl
                0x08006330      0x298 ..\obj\fatfs_sd.o
                0x08006330                TM_FATFS_SD_disk_ioctl
 .text          0x080065c8        0x0 ..\obj\usbh_msc_core.o
 .text.USBH_MSC_ClassRequest
                0x080065c8        0xc ..\obj\usbh_msc_core.o
 .text.USBH_MSC_InterfaceDeInit
                0x080065d4       0x3c ..\obj\usbh_msc_core.o
 .text.USBH_MSC_InterfaceInit
                0x08006610       0xb0 ..\obj\usbh_msc_core.o
 .text.USBH_MSC_ErrorHandle
                0x080066c0       0x3c ..\obj\usbh_msc_core.o
                0x080066c0                USBH_MSC_ErrorHandle
 .text.USBH_MSC_Handle
                0x080066fc      0x1a8 ..\obj\usbh_msc_core.o
 .text          0x080068a4        0x0 ..\obj\bt.o
 .text.BTBtnsProc
                0x080068a4       0xd4 ..\obj\bt.o
                0x080068a4                BTBtnsProc
 .text          0x08006978        0x0 ..\obj\gpio.o
 .text.Gpio_Init
                0x08006978      0x12c ..\obj\gpio.o
                0x08006978                Gpio_Init
 .text.Gpio_BT_Enable_Cmd
                0x08006aa4       0x38 ..\obj\gpio.o
                0x08006aa4                Gpio_BT_Enable_Cmd
 .text.Gpio_BT_Disable_Cmd
                0x08006adc       0x28 ..\obj\gpio.o
                0x08006adc                Gpio_BT_Disable_Cmd
 .text          0x08006b04        0x0 ..\obj\tm_stm32f4_delay.o
 .text.SysTick_Handler
                0x08006b04       0x90 ..\obj\tm_stm32f4_delay.o
                0x08006b04                SysTick_Handler
 .text.TM_DELAY_Init
                0x08006b94       0x58 ..\obj\tm_stm32f4_delay.o
                0x08006b94                TM_DELAY_Init
 .text.TM_DELAY_EnableDelayTimer
                0x08006bec       0x1c ..\obj\tm_stm32f4_delay.o
                0x08006bec                TM_DELAY_EnableDelayTimer
 .text.TM_DELAY_DisableDelayTimer
                0x08006c08       0x10 ..\obj\tm_stm32f4_delay.o
                0x08006c08                TM_DELAY_DisableDelayTimer
 .text.TM_DELAY_TimerCreate
                0x08006c18       0x4c ..\obj\tm_stm32f4_delay.o
                0x08006c18                TM_DELAY_TimerCreate
 .text.TM_DELAY_TimerDelete
                0x08006c64       0x70 ..\obj\tm_stm32f4_delay.o
                0x08006c64                TM_DELAY_TimerDelete
 .text.TM_DELAY_TimerStop
                0x08006cd4        0x8 ..\obj\tm_stm32f4_delay.o
                0x08006cd4                TM_DELAY_TimerStop
 .text.TM_DELAY_TimerStart
                0x08006cdc        0x8 ..\obj\tm_stm32f4_delay.o
                0x08006cdc                TM_DELAY_TimerStart
 .text.TM_DELAY_TimerReset
                0x08006ce4        0x8 ..\obj\tm_stm32f4_delay.o
                0x08006ce4                TM_DELAY_TimerReset
 .text.TM_DELAY_TimerAutoReload
                0x08006cec        0x4 ..\obj\tm_stm32f4_delay.o
                0x08006cec                TM_DELAY_TimerAutoReload
 .text.TM_DELAY_TimerAutoReloadValue
                0x08006cf0        0x4 ..\obj\tm_stm32f4_delay.o
                0x08006cf0                TM_DELAY_TimerAutoReloadValue
 .text          0x08006cf4        0x0 ..\obj\file.o
 .text.File_Cmp_Ext
                0x08006cf4       0x24 ..\obj\file.o
                0x08006cf4                File_Cmp_Ext
 .text.scan_files
                0x08006d18      0x104 ..\obj\file.o
                0x08006d18                scan_files
 .text          0x08006e1c        0x0 ..\obj\syscall.o
 .text          0x08006e1c        0x0 ..\obj\tm_stm32f4_spi.o
 .text.TM_SPI_GetPrescalerFromMaxFrequency
                0x08006e1c       0x4c ..\obj\tm_stm32f4_spi.o
                0x08006e1c                TM_SPI_GetPrescalerFromMaxFrequency
 .text.TM_SPI_SetDataSize
                0x08006e68       0x3c ..\obj\tm_stm32f4_spi.o
                0x08006e68                TM_SPI_SetDataSize
 .text.TM_SPI_SendMulti
                0x08006ea4       0x50 ..\obj\tm_stm32f4_spi.o
                0x08006ea4                TM_SPI_SendMulti
 .text.TM_SPI_WriteMulti
                0x08006ef4       0x4c ..\obj\tm_stm32f4_spi.o
                0x08006ef4                TM_SPI_WriteMulti
 .text.TM_SPI_ReadMulti
                0x08006f40       0x4c ..\obj\tm_stm32f4_spi.o
                0x08006f40                TM_SPI_ReadMulti
 .text.TM_SPI_SendMulti16
                0x08006f8c       0x54 ..\obj\tm_stm32f4_spi.o
                0x08006f8c                TM_SPI_SendMulti16
 .text.TM_SPI_WriteMulti16
                0x08006fe0       0x4c ..\obj\tm_stm32f4_spi.o
                0x08006fe0                TM_SPI_WriteMulti16
 .text.TM_SPI_ReadMulti16
                0x0800702c       0x4c ..\obj\tm_stm32f4_spi.o
                0x0800702c                TM_SPI_ReadMulti16
 .text.TM_SPI_InitCustomPinsCallback
                0x08007078        0x4 ..\obj\tm_stm32f4_spi.o
                0x08007078                TM_SPI_InitCustomPinsCallback
 .text.TM_SPI1_INT_InitPins
                0x0800707c       0x54 ..\obj\tm_stm32f4_spi.o
                0x0800707c                TM_SPI1_INT_InitPins
 .text.TM_SPIx_Init
                0x080070d0       0xbc ..\obj\tm_stm32f4_spi.o
 .text.TM_SPI_Init
                0x0800718c       0x28 ..\obj\tm_stm32f4_spi.o
                0x0800718c                TM_SPI_Init
 .text.TM_SPI_InitWithMode
                0x080071b4       0x28 ..\obj\tm_stm32f4_spi.o
                0x080071b4                TM_SPI_InitWithMode
 .text.TM_SPI_InitFull
                0x080071dc       0x2c ..\obj\tm_stm32f4_spi.o
                0x080071dc                TM_SPI_InitFull
 .text          0x08007208        0x0 ..\obj\menu.o
 .text.MenuInit
                0x08007208       0x40 ..\obj\menu.o
                0x08007208                MenuInit
 .text.TM_EXTI_Handler
                0x08007248       0x2c ..\obj\menu.o
                0x08007248                TM_EXTI_Handler
 .text.RotSwPRessed
                0x08007274       0x14 ..\obj\menu.o
                0x08007274                RotSwPRessed
 .text.ButtonPRessed
                0x08007288       0x14 ..\obj\menu.o
                0x08007288                ButtonPRessed
 .text.TIM2_IRQHandler
                0x0800729c       0x3c ..\obj\menu.o
                0x0800729c                TIM2_IRQHandler
 .text.TIM4_IRQHandler
                0x080072d8       0x38 ..\obj\menu.o
                0x080072d8                TIM4_IRQHandler
 .text.RemoveId3
                0x08007310       0x28 ..\obj\menu.o
                0x08007310                RemoveId3
 .text.RemoveFromIndex
                0x08007338       0xa4 ..\obj\menu.o
                0x08007338                RemoveFromIndex
 .text.PutId3   0x080073dc       0x54 ..\obj\menu.o
                0x080073dc                PutId3
 .text.PutToIndex
                0x08007430       0x8c ..\obj\menu.o
                0x08007430                PutToIndex
 .text.ChangeToList
                0x080074bc       0x10 ..\obj\menu.o
                0x080074bc                ChangeToList
 .text.MainMenuProc
                0x080074cc      0x228 ..\obj\menu.o
                0x080074cc                MainMenuProc
 .text.ChangeToMain
                0x080076f4       0x10 ..\obj\menu.o
                0x080076f4                ChangeToMain
 .text.ListProc
                0x08007704      0x1a0 ..\obj\menu.o
                0x08007704                ListProc
 .text.MenuProc
                0x080078a4       0x24 ..\obj\menu.o
                0x080078a4                MenuProc
 .text.MenuChangeSetting
                0x080078c8       0x28 ..\obj\menu.o
                0x080078c8                MenuChangeSetting
 .text          0x080078f0        0x0 ..\obj\usbh_core.o
 .text.USBH_Connected
                0x080078f0        0xc ..\obj\usbh_core.o
                0x080078f0                USBH_Connected
 .text.USBH_Disconnected
                0x080078fc        0xc ..\obj\usbh_core.o
                0x080078fc                USBH_Disconnected
 .text.USBH_SOF
                0x08007908        0x4 ..\obj\usbh_core.o
                0x08007908                USBH_SOF
 .text.USBH_DeInit
                0x0800790c       0x34 ..\obj\usbh_core.o
                0x0800790c                USBH_DeInit
 .text.USBH_Init
                0x08007940       0x40 ..\obj\usbh_core.o
                0x08007940                USBH_Init
 .text.USBH_ErrorHandle
                0x08007980       0x2c ..\obj\usbh_core.o
                0x08007980                USBH_ErrorHandle
 .text.USBH_HandleControl
                0x080079ac      0x234 ..\obj\usbh_core.o
                0x080079ac                USBH_HandleControl
 .text.USBH_Process
                0x08007be0      0x390 ..\obj\usbh_core.o
                0x08007be0                USBH_Process
 .text          0x08007f70        0x0 ..\obj\stm32f4xx_gpio.o
 .text.GPIO_DeInit
                0x08007f70      0x104 ..\obj\stm32f4xx_gpio.o
                0x08007f70                GPIO_DeInit
 .text.GPIO_Init
                0x08008074       0x90 ..\obj\stm32f4xx_gpio.o
                0x08008074                GPIO_Init
 .text.GPIO_StructInit
                0x08008104       0x14 ..\obj\stm32f4xx_gpio.o
                0x08008104                GPIO_StructInit
 .text.GPIO_PinLockConfig
                0x08008118       0x24 ..\obj\stm32f4xx_gpio.o
                0x08008118                GPIO_PinLockConfig
 .text.GPIO_ReadInputDataBit
                0x0800813c        0xc ..\obj\stm32f4xx_gpio.o
                0x0800813c                GPIO_ReadInputDataBit
 .text.GPIO_ReadInputData
                0x08008148        0x8 ..\obj\stm32f4xx_gpio.o
                0x08008148                GPIO_ReadInputData
 .text.GPIO_ReadOutputDataBit
                0x08008150        0xc ..\obj\stm32f4xx_gpio.o
                0x08008150                GPIO_ReadOutputDataBit
 .text.GPIO_ReadOutputData
                0x0800815c        0x8 ..\obj\stm32f4xx_gpio.o
                0x0800815c                GPIO_ReadOutputData
 .text.GPIO_SetBits
                0x08008164        0x4 ..\obj\stm32f4xx_gpio.o
                0x08008164                GPIO_SetBits
 .text.GPIO_ResetBits
                0x08008168        0x4 ..\obj\stm32f4xx_gpio.o
                0x08008168                GPIO_ResetBits
 .text.GPIO_WriteBit
                0x0800816c        0xc ..\obj\stm32f4xx_gpio.o
                0x0800816c                GPIO_WriteBit
 .text.GPIO_Write
                0x08008178        0x4 ..\obj\stm32f4xx_gpio.o
                0x08008178                GPIO_Write
 .text.GPIO_ToggleBits
                0x0800817c        0x8 ..\obj\stm32f4xx_gpio.o
                0x0800817c                GPIO_ToggleBits
 .text.GPIO_PinAFConfig
                0x08008184       0x28 ..\obj\stm32f4xx_gpio.o
                0x08008184                GPIO_PinAFConfig
 .text          0x080081ac        0x0 ..\obj\id3.o
 .text.Mp3ReadId3V2Text
                0x080081ac       0xc0 ..\obj\id3.o
                0x080081ac                Mp3ReadId3V2Text
 .text.Mp3ReadId3V2Tag
                0x0800826c      0x1d0 ..\obj\id3.o
                0x0800826c                Mp3ReadId3V2Tag
 .text          0x0800843c        0x0 ..\obj\usbh_msc_scsi.o
 .text.USBH_MSC_TestUnitReady
                0x0800843c       0xa0 ..\obj\usbh_msc_scsi.o
                0x0800843c                USBH_MSC_TestUnitReady
 .text.USBH_MSC_ReadCapacity10
                0x080084dc       0xbc ..\obj\usbh_msc_scsi.o
                0x080084dc                USBH_MSC_ReadCapacity10
 .text.USBH_MSC_ModeSense6
                0x08008598       0xb8 ..\obj\usbh_msc_scsi.o
                0x08008598                USBH_MSC_ModeSense6
 .text.USBH_MSC_RequestSense
                0x08008650       0xc0 ..\obj\usbh_msc_scsi.o
                0x08008650                USBH_MSC_RequestSense
 .text.USBH_MSC_Write10
                0x08008710       0xc0 ..\obj\usbh_msc_scsi.o
                0x08008710                USBH_MSC_Write10
 .text.USBH_MSC_Read10
                0x080087d0       0xe4 ..\obj\usbh_msc_scsi.o
                0x080087d0                USBH_MSC_Read10
 .text          0x080088b4        0x0 ..\obj\system_stm32f4xx.o
 .text.SystemInit
                0x080088b4       0xf4 ..\obj\system_stm32f4xx.o
                0x080088b4                SystemInit
 .text.SystemCoreClockUpdate
                0x080089a8       0x8c ..\obj\system_stm32f4xx.o
                0x080089a8                SystemCoreClockUpdate
 .text          0x08008a34        0x0 ..\obj\DMA.o
 .text.DMA_Audio_Init_Single
                0x08008a34       0x74 ..\obj\DMA.o
                0x08008a34                DMA_Audio_Init_Single
 .text.DMA_Audio_Send
                0x08008aa8       0x14 ..\obj\DMA.o
                0x08008aa8                DMA_Audio_Send
 .text.DMA1_Stream7_IRQHandler
                0x08008abc       0x5c ..\obj\DMA.o
                0x08008abc                DMA1_Stream7_IRQHandler
 .text          0x08008b18        0x0 ..\obj\syscalls.o
 .text._sbrk    0x08008b18       0x20 ..\obj\syscalls.o
                0x08008b18                _sbrk
 .text.link     0x08008b38        0x8 ..\obj\syscalls.o
                0x08008b38                link
 .text._close   0x08008b40        0x8 ..\obj\syscalls.o
                0x08008b40                _close
 .text._fstat   0x08008b48        0xc ..\obj\syscalls.o
                0x08008b48                _fstat
 .text._isatty  0x08008b54        0x4 ..\obj\syscalls.o
                0x08008b54                _isatty
 .text._lseek   0x08008b58        0x4 ..\obj\syscalls.o
                0x08008b58                _lseek
 .text._read    0x08008b5c        0x4 ..\obj\syscalls.o
                0x08008b5c                _read
 .text._write   0x08008b60        0x4 ..\obj\syscalls.o
                0x08008b60                _write
 .text.abort    0x08008b64        0x4 ..\obj\syscalls.o
                0x08008b64                abort
 .text          0x08008b68        0x0 ..\obj\stm32f4xx_dma.o
 .text.DMA_DeInit
                0x08008b68      0x154 ..\obj\stm32f4xx_dma.o
                0x08008b68                DMA_DeInit
 .text.DMA_Init
                0x08008cbc       0x58 ..\obj\stm32f4xx_dma.o
                0x08008cbc                DMA_Init
 .text.DMA_StructInit
                0x08008d14       0x24 ..\obj\stm32f4xx_dma.o
                0x08008d14                DMA_StructInit
 .text.DMA_Cmd  0x08008d38       0x18 ..\obj\stm32f4xx_dma.o
                0x08008d38                DMA_Cmd
 .text.DMA_PeriphIncOffsetSizeConfig
                0x08008d50       0x18 ..\obj\stm32f4xx_dma.o
                0x08008d50                DMA_PeriphIncOffsetSizeConfig
 .text.DMA_FlowControllerConfig
                0x08008d68       0x18 ..\obj\stm32f4xx_dma.o
                0x08008d68                DMA_FlowControllerConfig
 .text.DMA_SetCurrDataCounter
                0x08008d80        0x4 ..\obj\stm32f4xx_dma.o
                0x08008d80                DMA_SetCurrDataCounter
 .text.DMA_GetCurrDataCounter
                0x08008d84        0x8 ..\obj\stm32f4xx_dma.o
                0x08008d84                DMA_GetCurrDataCounter
 .text.DMA_DoubleBufferModeConfig
                0x08008d8c       0x18 ..\obj\stm32f4xx_dma.o
                0x08008d8c                DMA_DoubleBufferModeConfig
 .text.DMA_DoubleBufferModeCmd
                0x08008da4       0x18 ..\obj\stm32f4xx_dma.o
                0x08008da4                DMA_DoubleBufferModeCmd
 .text.DMA_MemoryTargetConfig
                0x08008dbc        0xc ..\obj\stm32f4xx_dma.o
                0x08008dbc                DMA_MemoryTargetConfig
 .text.DMA_GetCurrentMemoryTarget
                0x08008dc8        0x8 ..\obj\stm32f4xx_dma.o
                0x08008dc8                DMA_GetCurrentMemoryTarget
 .text.DMA_GetCmdStatus
                0x08008dd0        0x8 ..\obj\stm32f4xx_dma.o
                0x08008dd0                DMA_GetCmdStatus
 .text.DMA_GetFIFOStatus
                0x08008dd8        0x8 ..\obj\stm32f4xx_dma.o
                0x08008dd8                DMA_GetFIFOStatus
 .text.DMA_GetFlagStatus
                0x08008de0       0x3c ..\obj\stm32f4xx_dma.o
                0x08008de0                DMA_GetFlagStatus
 .text.DMA_ClearFlag
                0x08008e1c       0x34 ..\obj\stm32f4xx_dma.o
                0x08008e1c                DMA_ClearFlag
 .text.DMA_ITConfig
                0x08008e50       0x44 ..\obj\stm32f4xx_dma.o
                0x08008e50                DMA_ITConfig
 .text.DMA_GetITStatus
                0x08008e94       0x5c ..\obj\stm32f4xx_dma.o
                0x08008e94                DMA_GetITStatus
 .text.DMA_ClearITPendingBit
                0x08008ef0       0x34 ..\obj\stm32f4xx_dma.o
                0x08008ef0                DMA_ClearITPendingBit
 .text          0x08008f24        0x0 ..\obj\usbh_usr.o
 .text.USBH_USR_Init
                0x08008f24       0x18 ..\obj\usbh_usr.o
                0x08008f24                USBH_USR_Init
 .text.USBH_USR_DeviceAttached
                0x08008f3c       0x18 ..\obj\usbh_usr.o
                0x08008f3c                USBH_USR_DeviceAttached
 .text.USBH_USR_UnrecoveredError
                0x08008f54       0x18 ..\obj\usbh_usr.o
                0x08008f54                USBH_USR_UnrecoveredError
 .text.USBH_USR_DeviceDisconnected
                0x08008f6c       0x18 ..\obj\usbh_usr.o
                0x08008f6c                USBH_USR_DeviceDisconnected
 .text.USBH_USR_ResetDevice
                0x08008f84        0xc ..\obj\usbh_usr.o
                0x08008f84                USBH_USR_ResetDevice
 .text.USBH_USR_DeviceSpeedDetected
                0x08008f90        0x4 ..\obj\usbh_usr.o
                0x08008f90                USBH_USR_DeviceSpeedDetected
 .text.USBH_USR_Device_DescAvailable
                0x08008f94        0x4 ..\obj\usbh_usr.o
                0x08008f94                USBH_USR_Device_DescAvailable
 .text.USBH_USR_DeviceAddressAssigned
                0x08008f98        0x4 ..\obj\usbh_usr.o
                0x08008f98                USBH_USR_DeviceAddressAssigned
 .text.USBH_USR_Configuration_DescAvailable
                0x08008f9c        0x4 ..\obj\usbh_usr.o
                0x08008f9c                USBH_USR_Configuration_DescAvailable
 .text.USBH_USR_Manufacturer_String
                0x08008fa0        0x4 ..\obj\usbh_usr.o
                0x08008fa0                USBH_USR_Manufacturer_String
 .text.USBH_USR_Product_String
                0x08008fa4        0x4 ..\obj\usbh_usr.o
                0x08008fa4                USBH_USR_Product_String
 .text.USBH_USR_SerialNum_String
                0x08008fa8        0x4 ..\obj\usbh_usr.o
                0x08008fa8                USBH_USR_SerialNum_String
 .text.USBH_USR_EnumerationDone
                0x08008fac        0x4 ..\obj\usbh_usr.o
                0x08008fac                USBH_USR_EnumerationDone
 .text.USBH_USR_DeviceNotSupported
                0x08008fb0        0xc ..\obj\usbh_usr.o
                0x08008fb0                USBH_USR_DeviceNotSupported
 .text.USBH_USR_UserInput
                0x08008fbc        0x4 ..\obj\usbh_usr.o
                0x08008fbc                USBH_USR_UserInput
 .text.USBH_USR_OverCurrentDetected
                0x08008fc0        0xc ..\obj\usbh_usr.o
                0x08008fc0                USBH_USR_OverCurrentDetected
 .text.USBH_USR_MSC_Application
                0x08008fcc       0x30 ..\obj\usbh_usr.o
                0x08008fcc                USBH_USR_MSC_Application
 .text.USBH_USR_DeInit
                0x08008ffc        0xc ..\obj\usbh_usr.o
                0x08008ffc                USBH_USR_DeInit
 .text          0x08009008        0x0 ..\obj\i2s.o
 .text.Cs43InitGpios
                0x08009008       0x90 ..\obj\i2s.o
                0x08009008                Cs43InitGpios
 .text.Cs43Init
                0x08009098       0x48 ..\obj\i2s.o
                0x08009098                Cs43Init
 .text          0x080090e0        0x0 ..\obj\usb_bsp.o
 .text.BSP_Init
                0x080090e0        0x4 ..\obj\usb_bsp.o
                0x080090e0                BSP_Init
 .text.USB_OTG_BSP_Init
                0x080090e4       0x6c ..\obj\usb_bsp.o
                0x080090e4                USB_OTG_BSP_Init
 .text.USB_OTG_BSP_EnableInterrupt
                0x08009150       0x2c ..\obj\usb_bsp.o
                0x08009150                USB_OTG_BSP_EnableInterrupt
 .text.USB_OTG_BSP_DriveVBUS
                0x0800917c       0x20 ..\obj\usb_bsp.o
                0x0800917c                USB_OTG_BSP_DriveVBUS
 .text.USB_OTG_BSP_uDelay
                0x0800919c       0x2c ..\obj\usb_bsp.o
                0x0800919c                USB_OTG_BSP_uDelay
 .text.USB_OTG_BSP_ConfigVBUS
                0x080091c8       0x4c ..\obj\usb_bsp.o
                0x080091c8                USB_OTG_BSP_ConfigVBUS
 .text.USB_OTG_BSP_mDelay
                0x08009214       0x10 ..\obj\usb_bsp.o
                0x08009214                USB_OTG_BSP_mDelay
 .text.OTG_FS_IRQHandler
                0x08009224       0x10 ..\obj\usb_bsp.o
                0x08009224                OTG_FS_IRQHandler
 .text          0x08009234        0x0 ..\obj\tm_stm32f4_usb_msc_host.o
 .text.TM_USB_MSCHOST_DeInit
                0x08009234       0x18 ..\obj\tm_stm32f4_usb_msc_host.o
                0x08009234                TM_USB_MSCHOST_DeInit
 .text.TM_USB_MSCHOST_Process
                0x0800924c       0x20 ..\obj\tm_stm32f4_usb_msc_host.o
                0x0800924c                TM_USB_MSCHOST_Process
 .text.TM_USB_MSCHOST_Device
                0x0800926c       0x18 ..\obj\tm_stm32f4_usb_msc_host.o
                0x0800926c                TM_USB_MSCHOST_Device
 .text.TM_USB_MSCHOST_Init
                0x08009284       0x48 ..\obj\tm_stm32f4_usb_msc_host.o
                0x08009284                TM_USB_MSCHOST_Init
 .text          0x080092cc        0x0 ..\obj\stproc.o
 .text.xmp3fixpt_MidSideProc
                0x080092cc       0x68 ..\obj\stproc.o
                0x080092cc                xmp3fixpt_MidSideProc
 .text.xmp3fixpt_IntensityProcMPEG1
                0x08009334      0x330 ..\obj\stproc.o
                0x08009334                xmp3fixpt_IntensityProcMPEG1
 .text.xmp3fixpt_IntensityProcMPEG2
                0x08009664      0x2b0 ..\obj\stproc.o
                0x08009664                xmp3fixpt_IntensityProcMPEG2
 .text          0x08009914        0x0 ..\obj\huffman.o
 .text.xmp3fixpt_DecodeHuffman
                0x08009914      0x77c ..\obj\huffman.o
                0x08009914                xmp3fixpt_DecodeHuffman
 .text          0x0800a090        0x0 ..\obj\trigtabs_fixpt.o
 .text          0x0800a090        0x0 ..\obj\preamp.o
 .text.PreampSetVol
                0x0800a090       0x4c ..\obj\preamp.o
                0x0800a090                PreampSetVol
 .text.PreampSetSpeakAtt
                0x0800a0dc       0x30 ..\obj\preamp.o
                0x0800a0dc                PreampSetSpeakAtt
 .text.PreampSetInputGain
                0x0800a10c       0x34 ..\obj\preamp.o
                0x0800a10c                PreampSetInputGain
 .text.PreampSetBass
                0x0800a140       0x58 ..\obj\preamp.o
                0x0800a140                PreampSetBass
 .text.PreampSetTreble
                0x0800a198       0x58 ..\obj\preamp.o
                0x0800a198                PreampSetTreble
 .text.PreampInit
                0x0800a1f0       0x54 ..\obj\preamp.o
                0x0800a1f0                PreampInit
 .text.PreampSetSourceWrapper
                0x0800a244       0x4c ..\obj\preamp.o
                0x0800a244                PreampSetSourceWrapper
 .text          0x0800a290        0x0 ..\obj\buffers.o
 .text.ClearBuffer
                0x0800a290       0x14 ..\obj\buffers.o
 .text.xmp3fixpt_AllocateBuffers
                0x0800a2a4       0x8c ..\obj\buffers.o
                0x0800a2a4                xmp3fixpt_AllocateBuffers
 .text.xmp3fixpt_FreeBuffers
                0x0800a330        0x4 ..\obj\buffers.o
                0x0800a330                xmp3fixpt_FreeBuffers
 .text          0x0800a334        0x0 ..\obj\ff.o
 .text.mem_cpy  0x0800a334       0x14 ..\obj\ff.o
 .text.mem_set  0x0800a348       0x10 ..\obj\ff.o
 .text.ld_clust
                0x0800a358       0x20 ..\obj\ff.o
 .text.get_fileinfo
                0x0800a378       0x68 ..\obj\ff.o
 .text.get_achar
                0x0800a3e0       0x28 ..\obj\ff.o
 .text.pattern_matching
                0x0800a408       0xbc ..\obj\ff.o
 .text.get_ldnumber
                0x0800a4c4       0xb8 ..\obj\ff.o
 .text.sync_window
                0x0800a57c       0x68 ..\obj\ff.o
 .text.move_window
                0x0800a5e4       0x38 ..\obj\ff.o
 .text.check_fs
                0x0800a61c       0x8c ..\obj\ff.o
 .text.validate
                0x0800a6a8       0x38 ..\obj\ff.o
 .text.find_volume
                0x0800a6e0      0x3cc ..\obj\ff.o
 .text.sync_fs  0x0800aaac       0xbc ..\obj\ff.o
 .text.clust2sect
                0x0800ab68       0x18 ..\obj\ff.o
                0x0800ab68                clust2sect
 .text.get_fat  0x0800ab80       0xe8 ..\obj\ff.o
                0x0800ab80                get_fat
 .text.dir_sdi  0x0800ac68       0xa0 ..\obj\ff.o
 .text.dir_remove
                0x0800ad08       0x34 ..\obj\ff.o
 .text.put_fat  0x0800ad3c      0x13c ..\obj\ff.o
                0x0800ad3c                put_fat
 .text.create_chain
                0x0800ae78       0xc0 ..\obj\ff.o
 .text.dir_next
                0x0800af38      0x124 ..\obj\ff.o
 .text.follow_path
                0x0800b05c      0x268 ..\obj\ff.o
 .text.dir_alloc
                0x0800b2c4       0x4c ..\obj\ff.o
 .text.dir_register
                0x0800b310       0x38 ..\obj\ff.o
 .text.dir_read
                0x0800b348       0x5c ..\obj\ff.o
 .text.remove_chain
                0x0800b3a4       0x6c ..\obj\ff.o
 .text.f_mount  0x0800b410       0x68 ..\obj\ff.o
                0x0800b410                f_mount
 .text.f_open   0x0800b478      0x17c ..\obj\ff.o
                0x0800b478                f_open
 .text.f_read   0x0800b5f4      0x178 ..\obj\ff.o
                0x0800b5f4                f_read
 .text.f_write  0x0800b76c      0x1ac ..\obj\ff.o
                0x0800b76c                f_write
 .text.putc_bfd
                0x0800b918       0x48 ..\obj\ff.o
 .text.f_sync   0x0800b960       0xac ..\obj\ff.o
                0x0800b960                f_sync
 .text.f_close  0x0800ba0c       0x20 ..\obj\ff.o
                0x0800ba0c                f_close
 .text.f_chdrive
                0x0800ba2c       0x28 ..\obj\ff.o
                0x0800ba2c                f_chdrive
 .text.f_chdir  0x0800ba54       0x58 ..\obj\ff.o
                0x0800ba54                f_chdir
 .text.f_getcwd
                0x0800baac      0x16c ..\obj\ff.o
                0x0800baac                f_getcwd
 .text.f_lseek  0x0800bc18      0x168 ..\obj\ff.o
                0x0800bc18                f_lseek
 .text.f_opendir
                0x0800bd80       0x7c ..\obj\ff.o
                0x0800bd80                f_opendir
 .text.f_closedir
                0x0800bdfc       0x14 ..\obj\ff.o
                0x0800bdfc                f_closedir
 .text.f_readdir
                0x0800be10       0x5c ..\obj\ff.o
                0x0800be10                f_readdir
 .text.f_findnext
                0x0800be6c       0x38 ..\obj\ff.o
                0x0800be6c                f_findnext
 .text.f_findfirst
                0x0800bea4       0x20 ..\obj\ff.o
                0x0800bea4                f_findfirst
 .text.f_stat   0x0800bec4       0x44 ..\obj\ff.o
                0x0800bec4                f_stat
 .text.f_getfree
                0x0800bf08       0xe4 ..\obj\ff.o
                0x0800bf08                f_getfree
 .text.f_truncate
                0x0800bfec       0xc0 ..\obj\ff.o
                0x0800bfec                f_truncate
 .text.f_unlink
                0x0800c0ac       0xcc ..\obj\ff.o
                0x0800c0ac                f_unlink
 .text.f_mkdir  0x0800c178      0x1b8 ..\obj\ff.o
                0x0800c178                f_mkdir
 .text.f_chmod  0x0800c330       0x68 ..\obj\ff.o
                0x0800c330                f_chmod
 .text.f_rename
                0x0800c398      0x128 ..\obj\ff.o
                0x0800c398                f_rename
 .text.f_utime  0x0800c4c0       0x6c ..\obj\ff.o
                0x0800c4c0                f_utime
 .text.f_getlabel
                0x0800c52c       0xb0 ..\obj\ff.o
                0x0800c52c                f_getlabel
 .text.f_setlabel
                0x0800c5dc      0x1d0 ..\obj\ff.o
                0x0800c5dc                f_setlabel
 .text.f_mkfs   0x0800c7ac      0x630 ..\obj\ff.o
                0x0800c7ac                f_mkfs
 .text.f_gets   0x0800cddc       0x54 ..\obj\ff.o
                0x0800cddc                f_gets
 .text.f_putc   0x0800ce30       0x48 ..\obj\ff.o
                0x0800ce30                f_putc
 .text.f_puts   0x0800ce78       0x58 ..\obj\ff.o
                0x0800ce78                f_puts
 .text.f_printf
                0x0800ced0      0x31c ..\obj\ff.o
                0x0800ced0                f_printf
 .text          0x0800d1ec        0x0 ..\obj\usb_hcd.o
 .text.HCD_Init
                0x0800d1ec       0x54 ..\obj\usb_hcd.o
                0x0800d1ec                HCD_Init
 .text.HCD_GetCurrentSpeed
                0x0800d240        0xc ..\obj\usb_hcd.o
                0x0800d240                HCD_GetCurrentSpeed
 .text.HCD_ResetPort
                0x0800d24c        0xc ..\obj\usb_hcd.o
                0x0800d24c                HCD_ResetPort
 .text.HCD_IsDeviceConnected
                0x0800d258        0x8 ..\obj\usb_hcd.o
                0x0800d258                HCD_IsDeviceConnected
 .text.HCD_GetCurrentFrame
                0x0800d260        0x8 ..\obj\usb_hcd.o
                0x0800d260                HCD_GetCurrentFrame
 .text.HCD_GetURB_State
                0x0800d268        0x8 ..\obj\usb_hcd.o
                0x0800d268                HCD_GetURB_State
 .text.HCD_GetXferCnt
                0x0800d270        0x8 ..\obj\usb_hcd.o
                0x0800d270                HCD_GetXferCnt
 .text.HCD_GetHCState
                0x0800d278        0x8 ..\obj\usb_hcd.o
                0x0800d278                HCD_GetHCState
 .text.HCD_HC_Init
                0x0800d280        0x8 ..\obj\usb_hcd.o
                0x0800d280                HCD_HC_Init
 .text.HCD_SubmitRequest
                0x0800d288       0x18 ..\obj\usb_hcd.o
                0x0800d288                HCD_SubmitRequest
 .text          0x0800d2a0        0x0 ..\obj\usbh_msc_bot.o
 .text.USBH_MSC_Init
                0x0800d2a0       0x40 ..\obj\usbh_msc_bot.o
                0x0800d2a0                USBH_MSC_Init
 .text.USBH_MSC_BOT_Abort
                0x0800d2e0       0x3c ..\obj\usbh_msc_bot.o
                0x0800d2e0                USBH_MSC_BOT_Abort
 .text.USBH_MSC_DecodeCSW
                0x0800d31c       0x6c ..\obj\usbh_msc_bot.o
                0x0800d31c                USBH_MSC_DecodeCSW
 .text.USBH_MSC_HandleBOTXfer
                0x0800d388      0x2b8 ..\obj\usbh_msc_bot.o
                0x0800d388                USBH_MSC_HandleBOTXfer
 .text          0x0800d640        0x0 ..\obj\stm32f4xx_spi.o
 .text.SPI_I2S_DeInit
                0x0800d640       0x64 ..\obj\stm32f4xx_spi.o
                0x0800d640                SPI_I2S_DeInit
 .text.SPI_Init
                0x0800d6a4       0x40 ..\obj\stm32f4xx_spi.o
                0x0800d6a4                SPI_Init
 .text.I2S_Init
                0x0800d6e4       0xec ..\obj\stm32f4xx_spi.o
                0x0800d6e4                I2S_Init
 .text.SPI_StructInit
                0x0800d7d0       0x18 ..\obj\stm32f4xx_spi.o
                0x0800d7d0                SPI_StructInit
 .text.I2S_StructInit
                0x0800d7e8       0x14 ..\obj\stm32f4xx_spi.o
                0x0800d7e8                I2S_StructInit
 .text.SPI_Cmd  0x0800d7fc       0x1c ..\obj\stm32f4xx_spi.o
                0x0800d7fc                SPI_Cmd
 .text.I2S_Cmd  0x0800d818       0x1c ..\obj\stm32f4xx_spi.o
                0x0800d818                I2S_Cmd
 .text.SPI_DataSizeConfig
                0x0800d834       0x18 ..\obj\stm32f4xx_spi.o
                0x0800d834                SPI_DataSizeConfig
 .text.SPI_BiDirectionalLineConfig
                0x0800d84c       0x20 ..\obj\stm32f4xx_spi.o
                0x0800d84c                SPI_BiDirectionalLineConfig
 .text.SPI_NSSInternalSoftwareConfig
                0x0800d86c       0x24 ..\obj\stm32f4xx_spi.o
                0x0800d86c                SPI_NSSInternalSoftwareConfig
 .text.SPI_SSOutputCmd
                0x0800d890       0x1c ..\obj\stm32f4xx_spi.o
                0x0800d890                SPI_SSOutputCmd
 .text.SPI_TIModeCmd
                0x0800d8ac       0x1c ..\obj\stm32f4xx_spi.o
                0x0800d8ac                SPI_TIModeCmd
 .text.I2S_FullDuplexConfig
                0x0800d8c8       0x4c ..\obj\stm32f4xx_spi.o
                0x0800d8c8                I2S_FullDuplexConfig
 .text.SPI_I2S_ReceiveData
                0x0800d914        0x8 ..\obj\stm32f4xx_spi.o
                0x0800d914                SPI_I2S_ReceiveData
 .text.SPI_I2S_SendData
                0x0800d91c        0x4 ..\obj\stm32f4xx_spi.o
                0x0800d91c                SPI_I2S_SendData
 .text.SPI_CalculateCRC
                0x0800d920       0x1c ..\obj\stm32f4xx_spi.o
                0x0800d920                SPI_CalculateCRC
 .text.SPI_TransmitCRC
                0x0800d93c        0xc ..\obj\stm32f4xx_spi.o
                0x0800d93c                SPI_TransmitCRC
 .text.SPI_GetCRC
                0x0800d948        0xc ..\obj\stm32f4xx_spi.o
                0x0800d948                SPI_GetCRC
 .text.SPI_GetCRCPolynomial
                0x0800d954        0x8 ..\obj\stm32f4xx_spi.o
                0x0800d954                SPI_GetCRCPolynomial
 .text.SPI_I2S_DMACmd
                0x0800d95c       0x18 ..\obj\stm32f4xx_spi.o
                0x0800d95c                SPI_I2S_DMACmd
 .text.SPI_I2S_ITConfig
                0x0800d974       0x24 ..\obj\stm32f4xx_spi.o
                0x0800d974                SPI_I2S_ITConfig
 .text.SPI_I2S_GetFlagStatus
                0x0800d998        0xc ..\obj\stm32f4xx_spi.o
                0x0800d998                SPI_I2S_GetFlagStatus
 .text.SPI_I2S_ClearFlag
                0x0800d9a4        0x8 ..\obj\stm32f4xx_spi.o
                0x0800d9a4                SPI_I2S_ClearFlag
 .text.SPI_I2S_GetITStatus
                0x0800d9ac       0x30 ..\obj\stm32f4xx_spi.o
                0x0800d9ac                SPI_I2S_GetITStatus
 .text.SPI_I2S_ClearITPendingBit
                0x0800d9dc       0x14 ..\obj\stm32f4xx_spi.o
                0x0800d9dc                SPI_I2S_ClearITPendingBit
 .text          0x0800d9f0        0x0 ..\obj\dct32.o
 .text.xmp3fixpt_FDCT32
                0x0800d9f0      0x674 ..\obj\dct32.o
                0x0800d9f0                xmp3fixpt_FDCT32
 .text          0x0800e064        0x0 ..\obj\stm32f4xx_i2c.o
 .text.I2C_DeInit
                0x0800e064       0x64 ..\obj\stm32f4xx_i2c.o
                0x0800e064                I2C_DeInit
 .text.I2C_Init
                0x0800e0c8       0xe0 ..\obj\stm32f4xx_i2c.o
                0x0800e0c8                I2C_Init
 .text.I2C_StructInit
                0x0800e1a8       0x1c ..\obj\stm32f4xx_i2c.o
                0x0800e1a8                I2C_StructInit
 .text.I2C_Cmd  0x0800e1c4       0x1c ..\obj\stm32f4xx_i2c.o
                0x0800e1c4                I2C_Cmd
 .text.I2C_GenerateSTART
                0x0800e1e0       0x1c ..\obj\stm32f4xx_i2c.o
                0x0800e1e0                I2C_GenerateSTART
 .text.I2C_GenerateSTOP
                0x0800e1fc       0x1c ..\obj\stm32f4xx_i2c.o
                0x0800e1fc                I2C_GenerateSTOP
 .text.I2C_Send7bitAddress
                0x0800e218       0x14 ..\obj\stm32f4xx_i2c.o
                0x0800e218                I2C_Send7bitAddress
 .text.I2C_AcknowledgeConfig
                0x0800e22c       0x1c ..\obj\stm32f4xx_i2c.o
                0x0800e22c                I2C_AcknowledgeConfig
 .text.I2C_OwnAddress2Config
                0x0800e248       0x14 ..\obj\stm32f4xx_i2c.o
                0x0800e248                I2C_OwnAddress2Config
 .text.I2C_DualAddressCmd
                0x0800e25c       0x1c ..\obj\stm32f4xx_i2c.o
                0x0800e25c                I2C_DualAddressCmd
 .text.I2C_GeneralCallCmd
                0x0800e278       0x1c ..\obj\stm32f4xx_i2c.o
                0x0800e278                I2C_GeneralCallCmd
 .text.I2C_SoftwareResetCmd
                0x0800e294       0x1c ..\obj\stm32f4xx_i2c.o
                0x0800e294                I2C_SoftwareResetCmd
 .text.I2C_StretchClockCmd
                0x0800e2b0       0x1c ..\obj\stm32f4xx_i2c.o
                0x0800e2b0                I2C_StretchClockCmd
 .text.I2C_FastModeDutyCycleConfig
                0x0800e2cc       0x20 ..\obj\stm32f4xx_i2c.o
                0x0800e2cc                I2C_FastModeDutyCycleConfig
 .text.I2C_NACKPositionConfig
                0x0800e2ec       0x20 ..\obj\stm32f4xx_i2c.o
                0x0800e2ec                I2C_NACKPositionConfig
 .text.I2C_SMBusAlertConfig
                0x0800e30c       0x20 ..\obj\stm32f4xx_i2c.o
                0x0800e30c                I2C_SMBusAlertConfig
 .text.I2C_ARPCmd
                0x0800e32c       0x1c ..\obj\stm32f4xx_i2c.o
                0x0800e32c                I2C_ARPCmd
 .text.I2C_SendData
                0x0800e348        0x4 ..\obj\stm32f4xx_i2c.o
                0x0800e348                I2C_SendData
 .text.I2C_ReceiveData
                0x0800e34c        0x8 ..\obj\stm32f4xx_i2c.o
                0x0800e34c                I2C_ReceiveData
 .text.I2C_TransmitPEC
                0x0800e354       0x1c ..\obj\stm32f4xx_i2c.o
                0x0800e354                I2C_TransmitPEC
 .text.I2C_PECPositionConfig
                0x0800e370       0x20 ..\obj\stm32f4xx_i2c.o
                0x0800e370                I2C_PECPositionConfig
 .text.I2C_CalculatePEC
                0x0800e390       0x1c ..\obj\stm32f4xx_i2c.o
                0x0800e390                I2C_CalculatePEC
 .text.I2C_GetPEC
                0x0800e3ac        0x8 ..\obj\stm32f4xx_i2c.o
                0x0800e3ac                I2C_GetPEC
 .text.I2C_DMACmd
                0x0800e3b4       0x1c ..\obj\stm32f4xx_i2c.o
                0x0800e3b4                I2C_DMACmd
 .text.I2C_DMALastTransferCmd
                0x0800e3d0       0x1c ..\obj\stm32f4xx_i2c.o
                0x0800e3d0                I2C_DMALastTransferCmd
 .text.I2C_ReadRegister
                0x0800e3ec       0x18 ..\obj\stm32f4xx_i2c.o
                0x0800e3ec                I2C_ReadRegister
 .text.I2C_ITConfig
                0x0800e404       0x18 ..\obj\stm32f4xx_i2c.o
                0x0800e404                I2C_ITConfig
 .text.I2C_CheckEvent
                0x0800e41c       0x1c ..\obj\stm32f4xx_i2c.o
                0x0800e41c                I2C_CheckEvent
 .text.I2C_GetLastEvent
                0x0800e438       0x10 ..\obj\stm32f4xx_i2c.o
                0x0800e438                I2C_GetLastEvent
 .text.I2C_GetFlagStatus
                0x0800e448       0x38 ..\obj\stm32f4xx_i2c.o
                0x0800e448                I2C_GetFlagStatus
 .text.I2C_ClearFlag
                0x0800e480        0x8 ..\obj\stm32f4xx_i2c.o
                0x0800e480                I2C_ClearFlag
 .text.I2C_GetITStatus
                0x0800e488       0x20 ..\obj\stm32f4xx_i2c.o
                0x0800e488                I2C_GetITStatus
 .text.I2C_ClearITPendingBit
                0x0800e4a8        0x8 ..\obj\stm32f4xx_i2c.o
                0x0800e4a8                I2C_ClearITPendingBit
 .text          0x0800e4b0        0x0 ..\obj\stm32f4xx_exti.o
 .text.EXTI_DeInit
                0x0800e4b0       0x1c ..\obj\stm32f4xx_exti.o
                0x0800e4b0                EXTI_DeInit
 .text.EXTI_Init
                0x0800e4cc       0x90 ..\obj\stm32f4xx_exti.o
                0x0800e4cc                EXTI_Init
 .text.EXTI_StructInit
                0x0800e55c       0x10 ..\obj\stm32f4xx_exti.o
                0x0800e55c                EXTI_StructInit
 .text.EXTI_GenerateSWInterrupt
                0x0800e56c       0x10 ..\obj\stm32f4xx_exti.o
                0x0800e56c                EXTI_GenerateSWInterrupt
 .text.EXTI_GetFlagStatus
                0x0800e57c       0x14 ..\obj\stm32f4xx_exti.o
                0x0800e57c                EXTI_GetFlagStatus
 .text.EXTI_ClearFlag
                0x0800e590        0xc ..\obj\stm32f4xx_exti.o
                0x0800e590                EXTI_ClearFlag
 .text.EXTI_GetITStatus
                0x0800e59c       0x1c ..\obj\stm32f4xx_exti.o
                0x0800e59c                EXTI_GetITStatus
 .text.EXTI_ClearITPendingBit
                0x0800e5b8        0xc ..\obj\stm32f4xx_exti.o
                0x0800e5b8                EXTI_ClearITPendingBit
 .text          0x0800e5c4        0x0 ..\obj\usbh_ioreq.o
 .text.USBH_CtlReq
                0x0800e5c4       0x54 ..\obj\usbh_ioreq.o
                0x0800e5c4                USBH_CtlReq
 .text.USBH_CtlSendSetup
                0x0800e618       0x30 ..\obj\usbh_ioreq.o
                0x0800e618                USBH_CtlSendSetup
 .text.USBH_CtlSendData
                0x0800e648       0x4c ..\obj\usbh_ioreq.o
                0x0800e648                USBH_CtlSendData
 .text.USBH_CtlReceiveData
                0x0800e694       0x2c ..\obj\usbh_ioreq.o
                0x0800e694                USBH_CtlReceiveData
 .text.USBH_BulkSendData
                0x0800e6c0       0x40 ..\obj\usbh_ioreq.o
                0x0800e6c0                USBH_BulkSendData
 .text.USBH_BulkReceiveData
                0x0800e700       0x40 ..\obj\usbh_ioreq.o
                0x0800e700                USBH_BulkReceiveData
 .text.USBH_InterruptReceiveData
                0x0800e740       0x4c ..\obj\usbh_ioreq.o
                0x0800e740                USBH_InterruptReceiveData
 .text.USBH_InterruptSendData
                0x0800e78c       0x4c ..\obj\usbh_ioreq.o
                0x0800e78c                USBH_InterruptSendData
 .text.USBH_IsocReceiveData
                0x0800e7d8       0x2c ..\obj\usbh_ioreq.o
                0x0800e7d8                USBH_IsocReceiveData
 .text.USBH_IsocSendData
                0x0800e804       0x2c ..\obj\usbh_ioreq.o
                0x0800e804                USBH_IsocSendData
 .text          0x0800e830        0x0 ..\obj\misc.o
 .text.NVIC_PriorityGroupConfig
                0x0800e830       0x14 ..\obj\misc.o
                0x0800e830                NVIC_PriorityGroupConfig
 .text.NVIC_Init
                0x0800e844       0x70 ..\obj\misc.o
                0x0800e844                NVIC_Init
 .text.NVIC_SetVectorTable
                0x0800e8b4       0x14 ..\obj\misc.o
                0x0800e8b4                NVIC_SetVectorTable
 .text.NVIC_SystemLPConfig
                0x0800e8c8       0x1c ..\obj\misc.o
                0x0800e8c8                NVIC_SystemLPConfig
 .text.SysTick_CLKSourceConfig
                0x0800e8e4       0x18 ..\obj\misc.o
                0x0800e8e4                SysTick_CLKSourceConfig
 .text          0x0800e8fc        0x0 ..\obj\glcd.o
 .text.Sys_DelayUs
                0x0800e8fc       0x14 ..\obj\glcd.o
                0x0800e8fc                Sys_DelayUs
 .text.GLCD_Delay
                0x0800e910        0x8 ..\obj\glcd.o
                0x0800e910                GLCD_Delay
 .text.GLCDEN   0x0800e918       0x18 ..\obj\glcd.o
                0x0800e918                GLCDEN
 .text.GLCD_Write
                0x0800e930       0xc4 ..\obj\glcd.o
                0x0800e930                GLCD_Write
 .text.GLCD_Clear
                0x0800e9f4       0x4c ..\obj\glcd.o
                0x0800e9f4                GLCD_Clear
 .text.GLCD_Init
                0x0800ea40       0x34 ..\obj\glcd.o
                0x0800ea40                GLCD_Init
 .text.GLCD_Write_Block
                0x0800ea74       0x38 ..\obj\glcd.o
                0x0800ea74                GLCD_Write_Block
 .text.GLCD_Write_Char
                0x0800eaac       0x88 ..\obj\glcd.o
                0x0800eaac                GLCD_Write_Char
 .text.GLCD_WriteString
                0x0800eb34       0x2c ..\obj\glcd.o
                0x0800eb34                GLCD_WriteString
 .text          0x0800eb60        0x0 ..\obj\tm_stm32f4_gpio.o
 .text.TM_GPIO_DeInit
                0x0800eb60       0x4c ..\obj\tm_stm32f4_gpio.o
                0x0800eb60                TM_GPIO_DeInit
 .text.TM_GPIO_SetPinAsInput
                0x0800ebac       0x28 ..\obj\tm_stm32f4_gpio.o
                0x0800ebac                TM_GPIO_SetPinAsInput
 .text.TM_GPIO_SetPinAsOutput
                0x0800ebd4       0x30 ..\obj\tm_stm32f4_gpio.o
                0x0800ebd4                TM_GPIO_SetPinAsOutput
 .text.TM_GPIO_SetPinAsAnalog
                0x0800ec04       0x28 ..\obj\tm_stm32f4_gpio.o
                0x0800ec04                TM_GPIO_SetPinAsAnalog
 .text.TM_GPIO_SetPinAsAlternate
                0x0800ec2c       0x30 ..\obj\tm_stm32f4_gpio.o
                0x0800ec2c                TM_GPIO_SetPinAsAlternate
 .text.TM_GPIO_SetPullResistor
                0x0800ec5c       0x30 ..\obj\tm_stm32f4_gpio.o
                0x0800ec5c                TM_GPIO_SetPullResistor
 .text.TM_GPIO_Lock
                0x0800ec8c       0x10 ..\obj\tm_stm32f4_gpio.o
                0x0800ec8c                TM_GPIO_Lock
 .text.TM_GPIO_GetPinSource
                0x0800ec9c       0x18 ..\obj\tm_stm32f4_gpio.o
                0x0800ec9c                TM_GPIO_GetPinSource
 .text.TM_GPIO_GetPortSource
                0x0800ecb4       0x10 ..\obj\tm_stm32f4_gpio.o
                0x0800ecb4                TM_GPIO_GetPortSource
 .text.TM_GPIO_INT_EnableClock
                0x0800ecc4       0x20 ..\obj\tm_stm32f4_gpio.o
                0x0800ecc4                TM_GPIO_INT_EnableClock
 .text.TM_GPIO_INT_DisableClock
                0x0800ece4       0x24 ..\obj\tm_stm32f4_gpio.o
                0x0800ece4                TM_GPIO_INT_DisableClock
 .text.TM_GPIO_INT_Init
                0x0800ed08       0xa4 ..\obj\tm_stm32f4_gpio.o
                0x0800ed08                TM_GPIO_INT_Init
 .text.TM_GPIO_Init
                0x0800edac       0x30 ..\obj\tm_stm32f4_gpio.o
                0x0800edac                TM_GPIO_Init
 .text.TM_GPIO_InitAlternate
                0x0800eddc       0x68 ..\obj\tm_stm32f4_gpio.o
                0x0800eddc                TM_GPIO_InitAlternate
 .text.TM_GPIO_GetUsedPins
                0x0800ee44       0x18 ..\obj\tm_stm32f4_gpio.o
                0x0800ee44                TM_GPIO_GetUsedPins
 .text.TM_GPIO_GetFreePins
                0x0800ee5c       0x1c ..\obj\tm_stm32f4_gpio.o
                0x0800ee5c                TM_GPIO_GetFreePins
 .text          0x0800ee78        0x0 ..\obj\polyphase.o
 .text.xmp3fixpt_PolyphaseMono
                0x0800ee78      0x2bc ..\obj\polyphase.o
                0x0800ee78                xmp3fixpt_PolyphaseMono
 .text.xmp3fixpt_PolyphaseStereo
                0x0800f134      0x56c ..\obj\polyphase.o
                0x0800f134                xmp3fixpt_PolyphaseStereo
 .text          0x0800f6a0        0x0 ..\obj\tm_stm32f4_timer_properties.o
 .text.TM_TIMER_PROPERTIES_GetTimerProperties
                0x0800f6a0       0xbc ..\obj\tm_stm32f4_timer_properties.o
                0x0800f6a0                TM_TIMER_PROPERTIES_GetTimerProperties
 .text.TM_TIMER_PROPERTIES_GenerateDataForWorkingFrequency
                0x0800f75c       0xb0 ..\obj\tm_stm32f4_timer_properties.o
                0x0800f75c                TM_TIMER_PROPERTIES_GenerateDataForWorkingFrequency
 .text.TM_TIMER_PROPERTIES_EnableClock
                0x0800f80c      0x120 ..\obj\tm_stm32f4_timer_properties.o
                0x0800f80c                TM_TIMER_PROPERTIES_EnableClock
 .text.TM_TIMER_PROPERTIES_DisableClock
                0x0800f92c      0x120 ..\obj\tm_stm32f4_timer_properties.o
                0x0800f92c                TM_TIMER_PROPERTIES_DisableClock
 .text          0x0800fa4c        0x0 ..\obj\stm32f4xx_tim.o
 .text.TI1_Config
                0x0800fa4c       0x34 ..\obj\stm32f4xx_tim.o
 .text.TI2_Config
                0x0800fa80       0x3c ..\obj\stm32f4xx_tim.o
 .text.TIM_DeInit
                0x0800fabc      0x198 ..\obj\stm32f4xx_tim.o
                0x0800fabc                TIM_DeInit
 .text.TIM_TimeBaseInit
                0x0800fc54       0x88 ..\obj\stm32f4xx_tim.o
                0x0800fc54                TIM_TimeBaseInit
 .text.TIM_TimeBaseStructInit
                0x0800fcdc       0x14 ..\obj\stm32f4xx_tim.o
                0x0800fcdc                TIM_TimeBaseStructInit
 .text.TIM_PrescalerConfig
                0x0800fcf0        0x8 ..\obj\stm32f4xx_tim.o
                0x0800fcf0                TIM_PrescalerConfig
 .text.TIM_CounterModeConfig
                0x0800fcf8       0x10 ..\obj\stm32f4xx_tim.o
                0x0800fcf8                TIM_CounterModeConfig
 .text.TIM_SetCounter
                0x0800fd08        0x4 ..\obj\stm32f4xx_tim.o
                0x0800fd08                TIM_SetCounter
 .text.TIM_SetAutoreload
                0x0800fd0c        0x4 ..\obj\stm32f4xx_tim.o
                0x0800fd0c                TIM_SetAutoreload
 .text.TIM_GetCounter
                0x0800fd10        0x4 ..\obj\stm32f4xx_tim.o
                0x0800fd10                TIM_GetCounter
 .text.TIM_GetPrescaler
                0x0800fd14        0x8 ..\obj\stm32f4xx_tim.o
                0x0800fd14                TIM_GetPrescaler
 .text.TIM_UpdateDisableConfig
                0x0800fd1c       0x1c ..\obj\stm32f4xx_tim.o
                0x0800fd1c                TIM_UpdateDisableConfig
 .text.TIM_UpdateRequestConfig
                0x0800fd38       0x1c ..\obj\stm32f4xx_tim.o
                0x0800fd38                TIM_UpdateRequestConfig
 .text.TIM_ARRPreloadConfig
                0x0800fd54       0x1c ..\obj\stm32f4xx_tim.o
                0x0800fd54                TIM_ARRPreloadConfig
 .text.TIM_SelectOnePulseMode
                0x0800fd70       0x18 ..\obj\stm32f4xx_tim.o
                0x0800fd70                TIM_SelectOnePulseMode
 .text.TIM_SetClockDivision
                0x0800fd88       0x18 ..\obj\stm32f4xx_tim.o
                0x0800fd88                TIM_SetClockDivision
 .text.TIM_Cmd  0x0800fda0       0x1c ..\obj\stm32f4xx_tim.o
                0x0800fda0                TIM_Cmd
 .text.TIM_OC1Init
                0x0800fdbc       0x74 ..\obj\stm32f4xx_tim.o
                0x0800fdbc                TIM_OC1Init
 .text.TIM_OC2Init
                0x0800fe30       0x88 ..\obj\stm32f4xx_tim.o
                0x0800fe30                TIM_OC2Init
 .text.TIM_OC3Init
                0x0800feb8       0x84 ..\obj\stm32f4xx_tim.o
                0x0800feb8                TIM_OC3Init
 .text.TIM_OC4Init
                0x0800ff3c       0x68 ..\obj\stm32f4xx_tim.o
                0x0800ff3c                TIM_OC4Init
 .text.TIM_OCStructInit
                0x0800ffa4       0x14 ..\obj\stm32f4xx_tim.o
                0x0800ffa4                TIM_OCStructInit
 .text.TIM_SelectOCxM
                0x0800ffb8       0x54 ..\obj\stm32f4xx_tim.o
                0x0800ffb8                TIM_SelectOCxM
 .text.TIM_SetCompare1
                0x0801000c        0x4 ..\obj\stm32f4xx_tim.o
                0x0801000c                TIM_SetCompare1
 .text.TIM_SetCompare2
                0x08010010        0x4 ..\obj\stm32f4xx_tim.o
                0x08010010                TIM_SetCompare2
 .text.TIM_SetCompare3
                0x08010014        0x4 ..\obj\stm32f4xx_tim.o
                0x08010014                TIM_SetCompare3
 .text.TIM_SetCompare4
                0x08010018        0x4 ..\obj\stm32f4xx_tim.o
                0x08010018                TIM_SetCompare4
 .text.TIM_ForcedOC1Config
                0x0801001c       0x10 ..\obj\stm32f4xx_tim.o
                0x0801001c                TIM_ForcedOC1Config
 .text.TIM_ForcedOC2Config
                0x0801002c       0x14 ..\obj\stm32f4xx_tim.o
                0x0801002c                TIM_ForcedOC2Config
 .text.TIM_ForcedOC3Config
                0x08010040       0x10 ..\obj\stm32f4xx_tim.o
                0x08010040                TIM_ForcedOC3Config
 .text.TIM_ForcedOC4Config
                0x08010050       0x14 ..\obj\stm32f4xx_tim.o
                0x08010050                TIM_ForcedOC4Config
 .text.TIM_OC1PreloadConfig
                0x08010064       0x10 ..\obj\stm32f4xx_tim.o
                0x08010064                TIM_OC1PreloadConfig
 .text.TIM_OC2PreloadConfig
                0x08010074       0x14 ..\obj\stm32f4xx_tim.o
                0x08010074                TIM_OC2PreloadConfig
 .text.TIM_OC3PreloadConfig
                0x08010088       0x10 ..\obj\stm32f4xx_tim.o
                0x08010088                TIM_OC3PreloadConfig
 .text.TIM_OC4PreloadConfig
                0x08010098       0x14 ..\obj\stm32f4xx_tim.o
                0x08010098                TIM_OC4PreloadConfig
 .text.TIM_OC1FastConfig
                0x080100ac       0x10 ..\obj\stm32f4xx_tim.o
                0x080100ac                TIM_OC1FastConfig
 .text.TIM_OC2FastConfig
                0x080100bc       0x14 ..\obj\stm32f4xx_tim.o
                0x080100bc                TIM_OC2FastConfig
 .text.TIM_OC3FastConfig
                0x080100d0       0x10 ..\obj\stm32f4xx_tim.o
                0x080100d0                TIM_OC3FastConfig
 .text.TIM_OC4FastConfig
                0x080100e0       0x14 ..\obj\stm32f4xx_tim.o
                0x080100e0                TIM_OC4FastConfig
 .text.TIM_ClearOC1Ref
                0x080100f4       0x10 ..\obj\stm32f4xx_tim.o
                0x080100f4                TIM_ClearOC1Ref
 .text.TIM_ClearOC2Ref
                0x08010104       0x10 ..\obj\stm32f4xx_tim.o
                0x08010104                TIM_ClearOC2Ref
 .text.TIM_ClearOC3Ref
                0x08010114       0x10 ..\obj\stm32f4xx_tim.o
                0x08010114                TIM_ClearOC3Ref
 .text.TIM_ClearOC4Ref
                0x08010124       0x10 ..\obj\stm32f4xx_tim.o
                0x08010124                TIM_ClearOC4Ref
 .text.TIM_OC1PolarityConfig
                0x08010134       0x10 ..\obj\stm32f4xx_tim.o
                0x08010134                TIM_OC1PolarityConfig
 .text.TIM_OC1NPolarityConfig
                0x08010144       0x10 ..\obj\stm32f4xx_tim.o
                0x08010144                TIM_OC1NPolarityConfig
 .text.TIM_OC2PolarityConfig
                0x08010154       0x14 ..\obj\stm32f4xx_tim.o
                0x08010154                TIM_OC2PolarityConfig
 .text.TIM_OC2NPolarityConfig
                0x08010168       0x14 ..\obj\stm32f4xx_tim.o
                0x08010168                TIM_OC2NPolarityConfig
 .text.TIM_OC3PolarityConfig
                0x0801017c       0x14 ..\obj\stm32f4xx_tim.o
                0x0801017c                TIM_OC3PolarityConfig
 .text.TIM_OC3NPolarityConfig
                0x08010190       0x14 ..\obj\stm32f4xx_tim.o
                0x08010190                TIM_OC3NPolarityConfig
 .text.TIM_OC4PolarityConfig
                0x080101a4       0x14 ..\obj\stm32f4xx_tim.o
                0x080101a4                TIM_OC4PolarityConfig
 .text.TIM_CCxCmd
                0x080101b8       0x20 ..\obj\stm32f4xx_tim.o
                0x080101b8                TIM_CCxCmd
 .text.TIM_CCxNCmd
                0x080101d8       0x20 ..\obj\stm32f4xx_tim.o
                0x080101d8                TIM_CCxNCmd
 .text.TIM_ICStructInit
                0x080101f8       0x10 ..\obj\stm32f4xx_tim.o
                0x080101f8                TIM_ICStructInit
 .text.TIM_GetCapture1
                0x08010208        0x4 ..\obj\stm32f4xx_tim.o
                0x08010208                TIM_GetCapture1
 .text.TIM_GetCapture2
                0x0801020c        0x4 ..\obj\stm32f4xx_tim.o
                0x0801020c                TIM_GetCapture2
 .text.TIM_GetCapture3
                0x08010210        0x4 ..\obj\stm32f4xx_tim.o
                0x08010210                TIM_GetCapture3
 .text.TIM_GetCapture4
                0x08010214        0x4 ..\obj\stm32f4xx_tim.o
                0x08010214                TIM_GetCapture4
 .text.TIM_SetIC1Prescaler
                0x08010218       0x18 ..\obj\stm32f4xx_tim.o
                0x08010218                TIM_SetIC1Prescaler
 .text.TIM_SetIC2Prescaler
                0x08010230       0x1c ..\obj\stm32f4xx_tim.o
                0x08010230                TIM_SetIC2Prescaler
 .text.TIM_PWMIConfig
                0x0801024c       0x68 ..\obj\stm32f4xx_tim.o
                0x0801024c                TIM_PWMIConfig
 .text.TIM_SetIC3Prescaler
                0x080102b4       0x18 ..\obj\stm32f4xx_tim.o
                0x080102b4                TIM_SetIC3Prescaler
 .text.TIM_SetIC4Prescaler
                0x080102cc       0x1c ..\obj\stm32f4xx_tim.o
                0x080102cc                TIM_SetIC4Prescaler
 .text.TIM_ICInit
                0x080102e8       0xc4 ..\obj\stm32f4xx_tim.o
                0x080102e8                TIM_ICInit
 .text.TIM_BDTRConfig
                0x080103ac       0x24 ..\obj\stm32f4xx_tim.o
                0x080103ac                TIM_BDTRConfig
 .text.TIM_BDTRStructInit
                0x080103d0       0x14 ..\obj\stm32f4xx_tim.o
                0x080103d0                TIM_BDTRStructInit
 .text.TIM_CtrlPWMOutputs
                0x080103e4       0x24 ..\obj\stm32f4xx_tim.o
                0x080103e4                TIM_CtrlPWMOutputs
 .text.TIM_SelectCOM
                0x08010408       0x1c ..\obj\stm32f4xx_tim.o
                0x08010408                TIM_SelectCOM
 .text.TIM_CCPreloadControl
                0x08010424       0x1c ..\obj\stm32f4xx_tim.o
                0x08010424                TIM_CCPreloadControl
 .text.TIM_ITConfig
                0x08010440       0x18 ..\obj\stm32f4xx_tim.o
                0x08010440                TIM_ITConfig
 .text.TIM_GenerateEvent
                0x08010458        0x4 ..\obj\stm32f4xx_tim.o
                0x08010458                TIM_GenerateEvent
 .text.TIM_GetFlagStatus
                0x0801045c        0xc ..\obj\stm32f4xx_tim.o
                0x0801045c                TIM_GetFlagStatus
 .text.TIM_ClearFlag
                0x08010468        0x8 ..\obj\stm32f4xx_tim.o
                0x08010468                TIM_ClearFlag
 .text.TIM_GetITStatus
                0x08010470       0x18 ..\obj\stm32f4xx_tim.o
                0x08010470                TIM_GetITStatus
 .text.TIM_ClearITPendingBit
                0x08010488        0x8 ..\obj\stm32f4xx_tim.o
                0x08010488                TIM_ClearITPendingBit
 .text.TIM_DMAConfig
                0x08010490        0x8 ..\obj\stm32f4xx_tim.o
                0x08010490                TIM_DMAConfig
 .text.TIM_DMACmd
                0x08010498       0x18 ..\obj\stm32f4xx_tim.o
                0x08010498                TIM_DMACmd
 .text.TIM_SelectCCDMA
                0x080104b0       0x1c ..\obj\stm32f4xx_tim.o
                0x080104b0                TIM_SelectCCDMA
 .text.TIM_InternalClockConfig
                0x080104cc       0x10 ..\obj\stm32f4xx_tim.o
                0x080104cc                TIM_InternalClockConfig
 .text.TIM_ITRxExternalClockConfig
                0x080104dc       0x1c ..\obj\stm32f4xx_tim.o
                0x080104dc                TIM_ITRxExternalClockConfig
 .text.TIM_TIxExternalClockConfig
                0x080104f8       0x34 ..\obj\stm32f4xx_tim.o
                0x080104f8                TIM_TIxExternalClockConfig
 .text.TIM_SelectInputTrigger
                0x0801052c       0x10 ..\obj\stm32f4xx_tim.o
                0x0801052c                TIM_SelectInputTrigger
 .text.TIM_SelectOutputTrigger
                0x0801053c       0x18 ..\obj\stm32f4xx_tim.o
                0x0801053c                TIM_SelectOutputTrigger
 .text.TIM_SelectSlaveMode
                0x08010554       0x18 ..\obj\stm32f4xx_tim.o
                0x08010554                TIM_SelectSlaveMode
 .text.TIM_SelectMasterSlaveMode
                0x0801056c       0x18 ..\obj\stm32f4xx_tim.o
                0x0801056c                TIM_SelectMasterSlaveMode
 .text.TIM_ETRConfig
                0x08010584       0x18 ..\obj\stm32f4xx_tim.o
                0x08010584                TIM_ETRConfig
 .text.TIM_ETRClockMode1Config
                0x0801059c       0x1c ..\obj\stm32f4xx_tim.o
                0x0801059c                TIM_ETRClockMode1Config
 .text.TIM_ETRClockMode2Config
                0x080105b8       0x14 ..\obj\stm32f4xx_tim.o
                0x080105b8                TIM_ETRClockMode2Config
 .text.TIM_EncoderInterfaceConfig
                0x080105cc       0x3c ..\obj\stm32f4xx_tim.o
                0x080105cc                TIM_EncoderInterfaceConfig
 .text.TIM_SelectHallSensor
                0x08010608       0x1c ..\obj\stm32f4xx_tim.o
                0x08010608                TIM_SelectHallSensor
 .text.TIM_RemapConfig
                0x08010624        0x8 ..\obj\stm32f4xx_tim.o
                0x08010624                TIM_RemapConfig
 .text          0x0801062c        0x0 ..\obj\usb_hcd_int.o
 .text.USBH_OTG_ISR_Handler
                0x0801062c      0x10c ..\obj\usb_hcd_int.o
                0x0801062c                USBH_OTG_ISR_Handler
 .text.USB_OTG_USBH_handle_hc_ISR
                0x08010738       0x8c ..\obj\usb_hcd_int.o
 .text.USB_OTG_USBH_handle_sof_ISR
                0x080107c4       0x34 ..\obj\usb_hcd_int.o
 .text.USB_OTG_USBH_handle_Disconnect_ISR
                0x080107f8       0x34 ..\obj\usb_hcd_int.o
 .text.USB_OTG_USBH_handle_nptxfempty_ISR
                0x0801082c      0x188 ..\obj\usb_hcd_int.o
 .text.USB_OTG_USBH_handle_ptxfempty_ISR
                0x080109b4      0x188 ..\obj\usb_hcd_int.o
 .text.USB_OTG_USBH_handle_port_ISR
                0x08010b3c      0x164 ..\obj\usb_hcd_int.o
 .text.USB_OTG_USBH_handle_hc_n_Out_ISR
                0x08010ca0      0x550 ..\obj\usb_hcd_int.o
 .text.USB_OTG_USBH_handle_hc_n_In_ISR
                0x080111f0      0x5b0 ..\obj\usb_hcd_int.o
 .text.USB_OTG_USBH_handle_rx_qlvl_ISR
                0x080117a0      0x198 ..\obj\usb_hcd_int.o
 .text.USB_OTG_USBH_handle_IncompletePeriodicXfer_ISR
                0x08011938       0x4c ..\obj\usb_hcd_int.o
 .text          0x08011984      0x370 c:/program files (x86)/gnu tools arm embedded/5.4 2016q3/bin/../lib/gcc/arm-none-eabi/5.4.1/armv7e-m\libgcc.a(_arm_addsubdf3.o)
                0x08011984                __aeabi_drsub
                0x0801198c                __aeabi_dsub
                0x0801198c                __subdf3
                0x08011990                __aeabi_dadd
                0x08011990                __adddf3
                0x08011c08                __floatunsidf
                0x08011c08                __aeabi_ui2d
                0x08011c28                __floatsidf
                0x08011c28                __aeabi_i2d
                0x08011c4c                __aeabi_f2d
                0x08011c4c                __extendsfdf2
                0x08011c88                __floatundidf
                0x08011c88                __aeabi_ul2d
                0x08011c98                __floatdidf
                0x08011c98                __aeabi_l2d
 .text          0x08011cf4      0x424 c:/program files (x86)/gnu tools arm embedded/5.4 2016q3/bin/../lib/gcc/arm-none-eabi/5.4.1/armv7e-m\libgcc.a(_arm_muldivdf3.o)
                0x08011cf4                __aeabi_dmul
                0x08011cf4                __muldf3
                0x08011f48                __divdf3
                0x08011f48                __aeabi_ddiv
 .text          0x08012118      0x110 c:/program files (x86)/gnu tools arm embedded/5.4 2016q3/bin/../lib/gcc/arm-none-eabi/5.4.1/armv7e-m\libgcc.a(_arm_cmpdf2.o)
                0x08012118                __gtdf2
                0x08012118                __gedf2
                0x08012120                __ltdf2
                0x08012120                __ledf2
                0x08012128                __nedf2
                0x08012128                __eqdf2
                0x08012128                __cmpdf2
                0x080121a4                __aeabi_cdrcmple
                0x080121b4                __aeabi_cdcmpeq
                0x080121b4                __aeabi_cdcmple
                0x080121c4                __aeabi_dcmpeq
                0x080121d8                __aeabi_dcmplt
                0x080121ec                __aeabi_dcmple
                0x08012200                __aeabi_dcmpge
                0x08012214                __aeabi_dcmpgt
 .text          0x08012228       0x40 c:/program files (x86)/gnu tools arm embedded/5.4 2016q3/bin/../lib/gcc/arm-none-eabi/5.4.1/armv7e-m\libgcc.a(_arm_fixunsdfsi.o)
                0x08012228                __aeabi_d2uiz
                0x08012228                __fixunsdfsi
 .text          0x08012268        0x0 c:/program files (x86)/gnu tools arm embedded/5.4 2016q3/bin/../lib/gcc/arm-none-eabi/5.4.1/../../../../arm-none-eabi/lib/armv7e-m\libg.a(lib_a-malloc.o)
 .text.malloc   0x08012268       0x10 c:/program files (x86)/gnu tools arm embedded/5.4 2016q3/bin/../lib/gcc/arm-none-eabi/5.4.1/../../../../arm-none-eabi/lib/armv7e-m\libg.a(lib_a-malloc.o)
                0x08012268                malloc
 .text.free     0x08012278       0x10 c:/program files (x86)/gnu tools arm embedded/5.4 2016q3/bin/../lib/gcc/arm-none-eabi/5.4.1/../../../../arm-none-eabi/lib/armv7e-m\libg.a(lib_a-malloc.o)
                0x08012278                free
 .text          0x08012288        0x0 c:/program files (x86)/gnu tools arm embedded/5.4 2016q3/bin/../lib/gcc/arm-none-eabi/5.4.1/../../../../arm-none-eabi/lib/armv7e-m\libg.a(lib_a-mallocr.o)
 .text._malloc_r
                0x08012288      0x570 c:/program files (x86)/gnu tools arm embedded/5.4 2016q3/bin/../lib/gcc/arm-none-eabi/5.4.1/../../../../arm-none-eabi/lib/armv7e-m\libg.a(lib_a-mallocr.o)
                0x08012288                _malloc_r
 .text          0x080127f8      0x134 c:/program files (x86)/gnu tools arm embedded/5.4 2016q3/bin/../lib/gcc/arm-none-eabi/5.4.1/../../../../arm-none-eabi/lib/armv7e-m\libg.a(lib_a-memcpy.o)
                0x080127f8                memcpy
 .text          0x0801292c        0x0 c:/program files (x86)/gnu tools arm embedded/5.4 2016q3/bin/../lib/gcc/arm-none-eabi/5.4.1/../../../../arm-none-eabi/lib/armv7e-m\libg.a(lib_a-memmove.o)
 .text.memmove  0x0801292c       0xc8 c:/program files (x86)/gnu tools arm embedded/5.4 2016q3/bin/../lib/gcc/arm-none-eabi/5.4.1/../../../../arm-none-eabi/lib/armv7e-m\libg.a(lib_a-memmove.o)
                0x0801292c                memmove
 .text          0x080129f4        0x0 c:/program files (x86)/gnu tools arm embedded/5.4 2016q3/bin/../lib/gcc/arm-none-eabi/5.4.1/../../../../arm-none-eabi/lib/armv7e-m\libg.a(lib_a-mlock.o)
 .text.__malloc_lock
                0x080129f4        0x4 c:/program files (x86)/gnu tools arm embedded/5.4 2016q3/bin/../lib/gcc/arm-none-eabi/5.4.1/../../../../arm-none-eabi/lib/armv7e-m\libg.a(lib_a-mlock.o)
                0x080129f4                __malloc_lock
 .text.__malloc_unlock
                0x080129f8        0x4 c:/program files (x86)/gnu tools arm embedded/5.4 2016q3/bin/../lib/gcc/arm-none-eabi/5.4.1/../../../../arm-none-eabi/lib/armv7e-m\libg.a(lib_a-mlock.o)
                0x080129f8                __malloc_unlock
 .text          0x080129fc        0x0 c:/program files (x86)/gnu tools arm embedded/5.4 2016q3/bin/../lib/gcc/arm-none-eabi/5.4.1/../../../../arm-none-eabi/lib/armv7e-m\libg.a(lib_a-realloc.o)
 .text.realloc  0x080129fc       0x10 c:/program files (x86)/gnu tools arm embedded/5.4 2016q3/bin/../lib/gcc/arm-none-eabi/5.4.1/../../../../arm-none-eabi/lib/armv7e-m\libg.a(lib_a-realloc.o)
                0x080129fc                realloc
 .text          0x08012a0c        0x0 c:/program files (x86)/gnu tools arm embedded/5.4 2016q3/bin/../lib/gcc/arm-none-eabi/5.4.1/../../../../arm-none-eabi/lib/armv7e-m\libg.a(lib_a-reallocr.o)
 .text._realloc_r
                0x08012a0c      0x3e0 c:/program files (x86)/gnu tools arm embedded/5.4 2016q3/bin/../lib/gcc/arm-none-eabi/5.4.1/../../../../arm-none-eabi/lib/armv7e-m\libg.a(lib_a-reallocr.o)
                0x08012a0c                _realloc_r
 .text          0x08012dec        0x0 c:/program files (x86)/gnu tools arm embedded/5.4 2016q3/bin/../lib/gcc/arm-none-eabi/5.4.1/../../../../arm-none-eabi/lib/armv7e-m\libg.a(lib_a-sbrkr.o)
 .text._sbrk_r  0x08012dec       0x24 c:/program files (x86)/gnu tools arm embedded/5.4 2016q3/bin/../lib/gcc/arm-none-eabi/5.4.1/../../../../arm-none-eabi/lib/armv7e-m\libg.a(lib_a-sbrkr.o)
                0x08012dec                _sbrk_r
 .text          0x08012e10        0x0 c:/program files (x86)/gnu tools arm embedded/5.4 2016q3/bin/../lib/gcc/arm-none-eabi/5.4.1/../../../../arm-none-eabi/lib/armv7e-m\libg.a(lib_a-sprintf.o)
 .text._sprintf_r
                0x08012e10       0x44 c:/program files (x86)/gnu tools arm embedded/5.4 2016q3/bin/../lib/gcc/arm-none-eabi/5.4.1/../../../../arm-none-eabi/lib/armv7e-m\libg.a(lib_a-sprintf.o)
                0x08012e10                _sprintf_r
 .text.sprintf  0x08012e54       0x4c c:/program files (x86)/gnu tools arm embedded/5.4 2016q3/bin/../lib/gcc/arm-none-eabi/5.4.1/../../../../arm-none-eabi/lib/armv7e-m\libg.a(lib_a-sprintf.o)
                0x08012e54                sprintf
 .text          0x08012ea0        0x0 c:/program files (x86)/gnu tools arm embedded/5.4 2016q3/bin/../lib/gcc/arm-none-eabi/5.4.1/../../../../arm-none-eabi/lib/armv7e-m\libg.a(lib_a-strcpy.o)
 .text.strcpy   0x08012ea0       0xbc c:/program files (x86)/gnu tools arm embedded/5.4 2016q3/bin/../lib/gcc/arm-none-eabi/5.4.1/../../../../arm-none-eabi/lib/armv7e-m\libg.a(lib_a-strcpy.o)
                0x08012ea0                strcpy
 *fill*         0x08012f5c       0x24 
 .text          0x08012f80       0xdc c:/program files (x86)/gnu tools arm embedded/5.4 2016q3/bin/../lib/gcc/arm-none-eabi/5.4.1/../../../../arm-none-eabi/lib/armv7e-m\libg.a(lib_a-strlen.o)
                0x08012f80                strlen
 .text          0x0801305c        0x0 c:/program files (x86)/gnu tools arm embedded/5.4 2016q3/bin/../lib/gcc/arm-none-eabi/5.4.1/../../../../arm-none-eabi/lib/armv7e-m\libg.a(lib_a-svfprintf.o)
 .text._svfprintf_r
                0x0801305c     0x16b0 c:/program files (x86)/gnu tools arm embedded/5.4 2016q3/bin/../lib/gcc/arm-none-eabi/5.4.1/../../../../arm-none-eabi/lib/armv7e-m\libg.a(lib_a-svfprintf.o)
                0x0801305c                _svfprintf_r
 .text          0x0801470c        0x0 c:/program files (x86)/gnu tools arm embedded/5.4 2016q3/bin/../lib/gcc/arm-none-eabi/5.4.1/../../../../arm-none-eabi/lib/armv7e-m\libg.a(lib_a-dtoa.o)
 .text.quorem   0x0801470c      0x128 c:/program files (x86)/gnu tools arm embedded/5.4 2016q3/bin/../lib/gcc/arm-none-eabi/5.4.1/../../../../arm-none-eabi/lib/armv7e-m\libg.a(lib_a-dtoa.o)
 *fill*         0x08014834        0x4 
 .text._dtoa_r  0x08014838      0xe58 c:/program files (x86)/gnu tools arm embedded/5.4 2016q3/bin/../lib/gcc/arm-none-eabi/5.4.1/../../../../arm-none-eabi/lib/armv7e-m\libg.a(lib_a-dtoa.o)
                0x08014838                _dtoa_r
 .text          0x08015690        0x0 c:/program files (x86)/gnu tools arm embedded/5.4 2016q3/bin/../lib/gcc/arm-none-eabi/5.4.1/../../../../arm-none-eabi/lib/armv7e-m\libg.a(lib_a-freer.o)
 .text._malloc_trim_r
                0x08015690       0x9c c:/program files (x86)/gnu tools arm embedded/5.4 2016q3/bin/../lib/gcc/arm-none-eabi/5.4.1/../../../../arm-none-eabi/lib/armv7e-m\libg.a(lib_a-freer.o)
                0x08015690                _malloc_trim_r
 .text._free_r  0x0801572c      0x1d0 c:/program files (x86)/gnu tools arm embedded/5.4 2016q3/bin/../lib/gcc/arm-none-eabi/5.4.1/../../../../arm-none-eabi/lib/armv7e-m\libg.a(lib_a-freer.o)
                0x0801572c                _free_r
 .text          0x080158fc        0x0 c:/program files (x86)/gnu tools arm embedded/5.4 2016q3/bin/../lib/gcc/arm-none-eabi/5.4.1/../../../../arm-none-eabi/lib/armv7e-m\libg.a(lib_a-impure.o)
 .text          0x080158fc        0x0 c:/program files (x86)/gnu tools arm embedded/5.4 2016q3/bin/../lib/gcc/arm-none-eabi/5.4.1/../../../../arm-none-eabi/lib/armv7e-m\libg.a(lib_a-localeconv.o)
 .text.__localeconv_l
                0x080158fc        0x4 c:/program files (x86)/gnu tools arm embedded/5.4 2016q3/bin/../lib/gcc/arm-none-eabi/5.4.1/../../../../arm-none-eabi/lib/armv7e-m\libg.a(lib_a-localeconv.o)
                0x080158fc                __localeconv_l
 .text._localeconv_r
                0x08015900       0x1c c:/program files (x86)/gnu tools arm embedded/5.4 2016q3/bin/../lib/gcc/arm-none-eabi/5.4.1/../../../../arm-none-eabi/lib/armv7e-m\libg.a(lib_a-localeconv.o)
                0x08015900                _localeconv_r
 .text.localeconv
                0x0801591c       0x1c c:/program files (x86)/gnu tools arm embedded/5.4 2016q3/bin/../lib/gcc/arm-none-eabi/5.4.1/../../../../arm-none-eabi/lib/armv7e-m\libg.a(lib_a-localeconv.o)
                0x0801591c                localeconv
 *fill*         0x08015938        0x8 
 .text          0x08015940       0xa0 c:/program files (x86)/gnu tools arm embedded/5.4 2016q3/bin/../lib/gcc/arm-none-eabi/5.4.1/../../../../arm-none-eabi/lib/armv7e-m\libg.a(lib_a-memchr.o)
                0x08015940                memchr
 .text          0x080159e0        0x0 c:/program files (x86)/gnu tools arm embedded/5.4 2016q3/bin/../lib/gcc/arm-none-eabi/5.4.1/../../../../arm-none-eabi/lib/armv7e-m\libg.a(lib_a-mprec.o)
 .text._Balloc  0x080159e0       0x4c c:/program files (x86)/gnu tools arm embedded/5.4 2016q3/bin/../lib/gcc/arm-none-eabi/5.4.1/../../../../arm-none-eabi/lib/armv7e-m\libg.a(lib_a-mprec.o)
                0x080159e0                _Balloc
 .text._Bfree   0x08015a2c       0x14 c:/program files (x86)/gnu tools arm embedded/5.4 2016q3/bin/../lib/gcc/arm-none-eabi/5.4.1/../../../../arm-none-eabi/lib/armv7e-m\libg.a(lib_a-mprec.o)
                0x08015a2c                _Bfree
 .text.__multadd
                0x08015a40       0x80 c:/program files (x86)/gnu tools arm embedded/5.4 2016q3/bin/../lib/gcc/arm-none-eabi/5.4.1/../../../../arm-none-eabi/lib/armv7e-m\libg.a(lib_a-mprec.o)
                0x08015a40                __multadd
 .text.__s2b    0x08015ac0       0x98 c:/program files (x86)/gnu tools arm embedded/5.4 2016q3/bin/../lib/gcc/arm-none-eabi/5.4.1/../../../../arm-none-eabi/lib/armv7e-m\libg.a(lib_a-mprec.o)
                0x08015ac0                __s2b
 .text.__hi0bits
                0x08015b58       0x40 c:/program files (x86)/gnu tools arm embedded/5.4 2016q3/bin/../lib/gcc/arm-none-eabi/5.4.1/../../../../arm-none-eabi/lib/armv7e-m\libg.a(lib_a-mprec.o)
                0x08015b58                __hi0bits
 .text.__lo0bits
                0x08015b98       0x5c c:/program files (x86)/gnu tools arm embedded/5.4 2016q3/bin/../lib/gcc/arm-none-eabi/5.4.1/../../../../arm-none-eabi/lib/armv7e-m\libg.a(lib_a-mprec.o)
                0x08015b98                __lo0bits
 .text.__i2b    0x08015bf4       0x14 c:/program files (x86)/gnu tools arm embedded/5.4 2016q3/bin/../lib/gcc/arm-none-eabi/5.4.1/../../../../arm-none-eabi/lib/armv7e-m\libg.a(lib_a-mprec.o)
                0x08015bf4                __i2b
 .text.__multiply
                0x08015c08      0x130 c:/program files (x86)/gnu tools arm embedded/5.4 2016q3/bin/../lib/gcc/arm-none-eabi/5.4.1/../../../../arm-none-eabi/lib/armv7e-m\libg.a(lib_a-mprec.o)
                0x08015c08                __multiply
 .text.__pow5mult
                0x08015d38       0xa0 c:/program files (x86)/gnu tools arm embedded/5.4 2016q3/bin/../lib/gcc/arm-none-eabi/5.4.1/../../../../arm-none-eabi/lib/armv7e-m\libg.a(lib_a-mprec.o)
                0x08015d38                __pow5mult
 .text.__lshift
                0x08015dd8       0xb0 c:/program files (x86)/gnu tools arm embedded/5.4 2016q3/bin/../lib/gcc/arm-none-eabi/5.4.1/../../../../arm-none-eabi/lib/armv7e-m\libg.a(lib_a-mprec.o)
                0x08015dd8                __lshift
 .text.__mcmp   0x08015e88       0x40 c:/program files (x86)/gnu tools arm embedded/5.4 2016q3/bin/../lib/gcc/arm-none-eabi/5.4.1/../../../../arm-none-eabi/lib/armv7e-m\libg.a(lib_a-mprec.o)
                0x08015e88                __mcmp
 .text.__mdiff  0x08015ec8      0x114 c:/program files (x86)/gnu tools arm embedded/5.4 2016q3/bin/../lib/gcc/arm-none-eabi/5.4.1/../../../../arm-none-eabi/lib/armv7e-m\libg.a(lib_a-mprec.o)
                0x08015ec8                __mdiff
 .text.__ulp    0x08015fdc       0x44 c:/program files (x86)/gnu tools arm embedded/5.4 2016q3/bin/../lib/gcc/arm-none-eabi/5.4.1/../../../../arm-none-eabi/lib/armv7e-m\libg.a(lib_a-mprec.o)
                0x08015fdc                __ulp
 .text.__b2d    0x08016020       0xd4 c:/program files (x86)/gnu tools arm embedded/5.4 2016q3/bin/../lib/gcc/arm-none-eabi/5.4.1/../../../../arm-none-eabi/lib/armv7e-m\libg.a(lib_a-mprec.o)
                0x08016020                __b2d
 .text.__d2b    0x080160f4       0xb8 c:/program files (x86)/gnu tools arm embedded/5.4 2016q3/bin/../lib/gcc/arm-none-eabi/5.4.1/../../../../arm-none-eabi/lib/armv7e-m\libg.a(lib_a-mprec.o)
                0x080160f4                __d2b
 .text.__ratio  0x080161ac       0x54 c:/program files (x86)/gnu tools arm embedded/5.4 2016q3/bin/../lib/gcc/arm-none-eabi/5.4.1/../../../../arm-none-eabi/lib/armv7e-m\libg.a(lib_a-mprec.o)
                0x080161ac                __ratio
 .text._mprec_log10
                0x08016200       0x34 c:/program files (x86)/gnu tools arm embedded/5.4 2016q3/bin/../lib/gcc/arm-none-eabi/5.4.1/../../../../arm-none-eabi/lib/armv7e-m\libg.a(lib_a-mprec.o)
                0x08016200                _mprec_log10
 .text.__copybits
                0x08016234       0x48 c:/program files (x86)/gnu tools arm embedded/5.4 2016q3/bin/../lib/gcc/arm-none-eabi/5.4.1/../../../../arm-none-eabi/lib/armv7e-m\libg.a(lib_a-mprec.o)
                0x08016234                __copybits
 .text.__any_on
                0x0801627c       0x5c c:/program files (x86)/gnu tools arm embedded/5.4 2016q3/bin/../lib/gcc/arm-none-eabi/5.4.1/../../../../arm-none-eabi/lib/armv7e-m\libg.a(lib_a-mprec.o)
                0x0801627c                __any_on
 .text          0x080162d8        0x0 c:/program files (x86)/gnu tools arm embedded/5.4 2016q3/bin/../lib/gcc/arm-none-eabi/5.4.1/../../../../arm-none-eabi/lib/armv7e-m\libg.a(lib_a-reent.o)
 .text.cleanup_glue
                0x080162d8       0x1c c:/program files (x86)/gnu tools arm embedded/5.4 2016q3/bin/../lib/gcc/arm-none-eabi/5.4.1/../../../../arm-none-eabi/lib/armv7e-m\libg.a(lib_a-reent.o)
                0x080162d8                cleanup_glue
 .text._reclaim_reent
                0x080162f4       0x88 c:/program files (x86)/gnu tools arm embedded/5.4 2016q3/bin/../lib/gcc/arm-none-eabi/5.4.1/../../../../arm-none-eabi/lib/armv7e-m\libg.a(lib_a-reent.o)
                0x080162f4                _reclaim_reent
 .text          0x0801637c        0x0 c:/program files (x86)/gnu tools arm embedded/5.4 2016q3/bin/../lib/gcc/arm-none-eabi/5.4.1/../../../../arm-none-eabi/lib/armv7e-m\libg.a(lib_a-svfiprintf.o)
 .text.__ssprint_r
                0x0801637c      0x100 c:/program files (x86)/gnu tools arm embedded/5.4 2016q3/bin/../lib/gcc/arm-none-eabi/5.4.1/../../../../arm-none-eabi/lib/armv7e-m\libg.a(lib_a-svfiprintf.o)
                0x0801637c                __ssprint_r
 .text._svfiprintf_r
                0x0801647c      0xc5c c:/program files (x86)/gnu tools arm embedded/5.4 2016q3/bin/../lib/gcc/arm-none-eabi/5.4.1/../../../../arm-none-eabi/lib/armv7e-m\libg.a(lib_a-svfiprintf.o)
                0x0801647c                _svfiprintf_r
 .text          0x080170d8        0x0 c:/program files (x86)/gnu tools arm embedded/5.4 2016q3/bin/../lib/gcc/arm-none-eabi/5.4.1/../../../../arm-none-eabi/lib/armv7e-m\libg.a(lib_a-callocr.o)
 .text._calloc_r
                0x080170d8       0x60 c:/program files (x86)/gnu tools arm embedded/5.4 2016q3/bin/../lib/gcc/arm-none-eabi/5.4.1/../../../../arm-none-eabi/lib/armv7e-m\libg.a(lib_a-callocr.o)
                0x080170d8                _calloc_r
 .text          0x08017138        0x0 c:/program files (x86)/gnu tools arm embedded/5.4 2016q3/bin/../lib/gcc/arm-none-eabi/5.4.1/../../../../arm-none-eabi/lib/armv7e-m\libg.a(lib_a-locale.o)
 .text.__get_current_locale
                0x08017138       0x18 c:/program files (x86)/gnu tools arm embedded/5.4 2016q3/bin/../lib/gcc/arm-none-eabi/5.4.1/../../../../arm-none-eabi/lib/armv7e-m\libg.a(lib_a-locale.o)
 .text._setlocale_r
                0x08017150       0x40 c:/program files (x86)/gnu tools arm embedded/5.4 2016q3/bin/../lib/gcc/arm-none-eabi/5.4.1/../../../../arm-none-eabi/lib/armv7e-m\libg.a(lib_a-locale.o)
                0x08017150                _setlocale_r
 .text.__locale_mb_cur_max
                0x08017190       0x1c c:/program files (x86)/gnu tools arm embedded/5.4 2016q3/bin/../lib/gcc/arm-none-eabi/5.4.1/../../../../arm-none-eabi/lib/armv7e-m\libg.a(lib_a-locale.o)
                0x08017190                __locale_mb_cur_max
 .text.__locale_ctype_ptr_l
                0x080171ac        0x8 c:/program files (x86)/gnu tools arm embedded/5.4 2016q3/bin/../lib/gcc/arm-none-eabi/5.4.1/../../../../arm-none-eabi/lib/armv7e-m\libg.a(lib_a-locale.o)
                0x080171ac                __locale_ctype_ptr_l
 .text.__locale_ctype_ptr
                0x080171b4       0x14 c:/program files (x86)/gnu tools arm embedded/5.4 2016q3/bin/../lib/gcc/arm-none-eabi/5.4.1/../../../../arm-none-eabi/lib/armv7e-m\libg.a(lib_a-locale.o)
                0x080171b4                __locale_ctype_ptr
 .text.setlocale
                0x080171c8       0x10 c:/program files (x86)/gnu tools arm embedded/5.4 2016q3/bin/../lib/gcc/arm-none-eabi/5.4.1/../../../../arm-none-eabi/lib/armv7e-m\libg.a(lib_a-locale.o)
                0x080171c8                setlocale
 .text          0x080171d8        0x0 c:/program files (x86)/gnu tools arm embedded/5.4 2016q3/bin/../lib/gcc/arm-none-eabi/5.4.1/../../../../arm-none-eabi/lib/armv7e-m\libg.a(lib_a-mbtowc_r.o)
 .text._mbtowc_r
                0x080171d8       0x24 c:/program files (x86)/gnu tools arm embedded/5.4 2016q3/bin/../lib/gcc/arm-none-eabi/5.4.1/../../../../arm-none-eabi/lib/armv7e-m\libg.a(lib_a-mbtowc_r.o)
                0x080171d8                _mbtowc_r
 .text.__ascii_mbtowc
                0x080171fc       0x2c c:/program files (x86)/gnu tools arm embedded/5.4 2016q3/bin/../lib/gcc/arm-none-eabi/5.4.1/../../../../arm-none-eabi/lib/armv7e-m\libg.a(lib_a-mbtowc_r.o)
                0x080171fc                __ascii_mbtowc
 .text          0x08017228        0x0 c:/program files (x86)/gnu tools arm embedded/5.4 2016q3/bin/../lib/gcc/arm-none-eabi/5.4.1/../../../../arm-none-eabi/lib/armv7e-m\libg.a(lib_a-memset.o)
 .text.memset   0x08017228       0x9c c:/program files (x86)/gnu tools arm embedded/5.4 2016q3/bin/../lib/gcc/arm-none-eabi/5.4.1/../../../../arm-none-eabi/lib/armv7e-m\libg.a(lib_a-memset.o)
                0x08017228                memset
 *fill*         0x080172c4       0x1c 
 .text          0x080172e0      0x2dc c:/program files (x86)/gnu tools arm embedded/5.4 2016q3/bin/../lib/gcc/arm-none-eabi/5.4.1/../../../../arm-none-eabi/lib/armv7e-m\libg.a(lib_a-strcmp.o)
                0x080172e8                strcmp
 .text          0x080175bc        0x0 c:/program files (x86)/gnu tools arm embedded/5.4 2016q3/bin/../lib/gcc/arm-none-eabi/5.4.1/../../../../arm-none-eabi/lib/armv7e-m\libg.a(lib_a-wctomb_r.o)
 .text._wctomb_r
                0x080175bc       0x24 c:/program files (x86)/gnu tools arm embedded/5.4 2016q3/bin/../lib/gcc/arm-none-eabi/5.4.1/../../../../arm-none-eabi/lib/armv7e-m\libg.a(lib_a-wctomb_r.o)
                0x080175bc                _wctomb_r
 .text.__ascii_wctomb
                0x080175e0       0x1c c:/program files (x86)/gnu tools arm embedded/5.4 2016q3/bin/../lib/gcc/arm-none-eabi/5.4.1/../../../../arm-none-eabi/lib/armv7e-m\libg.a(lib_a-wctomb_r.o)
                0x080175e0                __ascii_wctomb
 .text          0x080175fc        0x0 c:/program files (x86)/gnu tools arm embedded/5.4 2016q3/bin/../lib/gcc/arm-none-eabi/5.4.1/../../../../arm-none-eabi/lib/armv7e-m\libg.a(lib_a-ctype_.o)
 .text          0x080175fc       0x2c c:/program files (x86)/gnu tools arm embedded/5.4 2016q3/bin/../lib/gcc/arm-none-eabi/5.4.1/armv7e-m\libgcc.a(_arm_unorddf2.o)
                0x080175fc                __unorddf2
                0x080175fc                __aeabi_dcmpun
 .text          0x08017628       0x50 c:/program files (x86)/gnu tools arm embedded/5.4 2016q3/bin/../lib/gcc/arm-none-eabi/5.4.1/armv7e-m\libgcc.a(_arm_fixdfsi.o)
                0x08017628                __aeabi_d2iz
                0x08017628                __fixdfsi
 .text          0x08017678       0x30 c:/program files (x86)/gnu tools arm embedded/5.4 2016q3/bin/../lib/gcc/arm-none-eabi/5.4.1/armv7e-m\libgcc.a(_aeabi_uldivmod.o)
                0x08017678                __aeabi_uldivmod
 .text          0x080176a8      0x2e4 c:/program files (x86)/gnu tools arm embedded/5.4 2016q3/bin/../lib/gcc/arm-none-eabi/5.4.1/armv7e-m\libgcc.a(_udivmoddi4.o)
                0x080176a8                __udivmoddi4
 .text          0x0801798c        0x4 c:/program files (x86)/gnu tools arm embedded/5.4 2016q3/bin/../lib/gcc/arm-none-eabi/5.4.1/armv7e-m\libgcc.a(_dvmd_tls.o)
                0x0801798c                __aeabi_idiv0
                0x0801798c                __aeabi_ldiv0
 *(.init)
 *(.fini)
 *crtbegin.o(.ctors)
 *crtbegin?.o(.ctors)
 *(EXCLUDE_FILE(*crtend.o *crtend?.o) .ctors)
 *(SORT(.ctors.*))
 *(.ctors)
 *crtbegin.o(.dtors)
 *crtbegin?.o(.dtors)
 *(EXCLUDE_FILE(*crtend.o *crtend?.o) .dtors)
 *(SORT(.dtors.*))
 *(.dtors)
 *(.rodata*)
 .rodata.str1.4
                0x08017990        0xc ..\obj\tm_stm32f4_fatfs.o
 .rodata        0x0801799c      0x24e ..\obj\dqchan.o
 *fill*         0x08017bea        0x2 
 .rodata        0x08017bec       0x68 ..\obj\scalfact.o
 .rodata.str1.4
                0x08017c54        0x7 ..\obj\mp3.o
 .rodata        0x08017c54     0x2304 ..\obj\hufftabs.o
                0x08017c54                xmp3fixpt_quadTabMaxBits
                0x08017c5c                xmp3fixpt_quadTabOffset
                0x08017c64                xmp3fixpt_quadTable
                0x08017cb4                xmp3fixpt_huffTabLookup
                0x08017db4                xmp3fixpt_huffTabOffset
                0x08017e34                xmp3fixpt_huffTable
 .rodata        0x08019f58       0x6c ..\obj\imdct.o
 .rodata        0x08019fc4      0x508 ..\obj\mp3tabs.o
                0x08019fc4                xmp3fixpt_sfBandTable
                0x0801a260                xmp3fixpt_slotTab
                0x0801a370                xmp3fixpt_sideBytesTab
                0x0801a37c                xmp3fixpt_bitsPerSlotTab
                0x0801a384                xmp3fixpt_samplesPerFrameTab
                0x0801a398                xmp3fixpt_bitrateTab
                0x0801a4a8                xmp3fixpt_samplerateTab
 .rodata.str1.4
                0x0801a4cc        0x7 ..\obj\main.o
 .rodata.str1.4
                0x0801a4cc        0x4 ..\obj\file.o
 .rodata        0x0801a4d0       0x20 ..\obj\menu.o
 .rodata.str1.4
                0x0801a4f0       0x58 ..\obj\menu.o
 .rodata.str1.4
                0x0801a548        0x4 ..\obj\usbh_core.o
 .rodata.str1.4
                0x0801a54c       0x11 ..\obj\id3.o
 *fill*         0x0801a55d        0x3 
 .rodata        0x0801a560      0x86c ..\obj\trigtabs_fixpt.o
                0x0801a560                xmp3fixpt_polyCoef
                0x0801a980                xmp3fixpt_coef32
                0x0801a9fc                xmp3fixpt_csa
                0x0801aa3c                xmp3fixpt_uniqueIDTab
                0x0801aa44                xmp3fixpt_ISFIIP
                0x0801aa54                xmp3fixpt_ISFMpeg2
                0x0801ab54                xmp3fixpt_ISFMpeg1
                0x0801ab8c                xmp3fixpt_imdctWin
 .rodata        0x0801adcc        0x3 ..\obj\preamp.o
 *fill*         0x0801adcf        0x1 
 .rodata        0x0801add0       0xd2 ..\obj\ff.o
 *fill*         0x0801aea2        0x2 
 .rodata.str1.4
                0x0801aea4       0x96 ..\obj\ff.o
 *fill*         0x0801af3a        0x2 
 .rodata        0x0801af3c       0xc0 ..\obj\dct32.o
 .rodata.zeroes.7256
                0x0801affc       0x10 c:/program files (x86)/gnu tools arm embedded/5.4 2016q3/bin/../lib/gcc/arm-none-eabi/5.4.1/../../../../arm-none-eabi/lib/armv7e-m\libg.a(lib_a-svfprintf.o)
 .rodata.str1.4
                0x0801b00c       0x42 c:/program files (x86)/gnu tools arm embedded/5.4 2016q3/bin/../lib/gcc/arm-none-eabi/5.4.1/../../../../arm-none-eabi/lib/armv7e-m\libg.a(lib_a-svfprintf.o)
 *fill*         0x0801b04e        0x2 
 .rodata.blanks.7255
                0x0801b050       0x10 c:/program files (x86)/gnu tools arm embedded/5.4 2016q3/bin/../lib/gcc/arm-none-eabi/5.4.1/../../../../arm-none-eabi/lib/armv7e-m\libg.a(lib_a-svfprintf.o)
 .rodata.str1.4
                0x0801b060       0x10 c:/program files (x86)/gnu tools arm embedded/5.4 2016q3/bin/../lib/gcc/arm-none-eabi/5.4.1/../../../../arm-none-eabi/lib/armv7e-m\libg.a(lib_a-dtoa.o)
                                 0x12 (size before relaxing)
 .rodata._global_impure_ptr
                0x0801b070        0x4 c:/program files (x86)/gnu tools arm embedded/5.4 2016q3/bin/../lib/gcc/arm-none-eabi/5.4.1/../../../../arm-none-eabi/lib/armv7e-m\libg.a(lib_a-impure.o)
                0x0801b070                _global_impure_ptr
 *fill*         0x0801b074        0x4 
 .rodata.__mprec_tens
                0x0801b078       0xc8 c:/program files (x86)/gnu tools arm embedded/5.4 2016q3/bin/../lib/gcc/arm-none-eabi/5.4.1/../../../../arm-none-eabi/lib/armv7e-m\libg.a(lib_a-mprec.o)
                0x0801b078                __mprec_tens
 .rodata.p05.6085
                0x0801b140        0xc c:/program files (x86)/gnu tools arm embedded/5.4 2016q3/bin/../lib/gcc/arm-none-eabi/5.4.1/../../../../arm-none-eabi/lib/armv7e-m\libg.a(lib_a-mprec.o)
 *fill*         0x0801b14c        0x4 
 .rodata.__mprec_bigtens
                0x0801b150       0x28 c:/program files (x86)/gnu tools arm embedded/5.4 2016q3/bin/../lib/gcc/arm-none-eabi/5.4.1/../../../../arm-none-eabi/lib/armv7e-m\libg.a(lib_a-mprec.o)
                0x0801b150                __mprec_bigtens
 .rodata.__mprec_tinytens
                0x0801b178       0x28 c:/program files (x86)/gnu tools arm embedded/5.4 2016q3/bin/../lib/gcc/arm-none-eabi/5.4.1/../../../../arm-none-eabi/lib/armv7e-m\libg.a(lib_a-mprec.o)
                0x0801b178                __mprec_tinytens
 .rodata.blanks.7235
                0x0801b1a0       0x10 c:/program files (x86)/gnu tools arm embedded/5.4 2016q3/bin/../lib/gcc/arm-none-eabi/5.4.1/../../../../arm-none-eabi/lib/armv7e-m\libg.a(lib_a-svfiprintf.o)
 .rodata.str1.4
                0x0801b1b0       0x2f c:/program files (x86)/gnu tools arm embedded/5.4 2016q3/bin/../lib/gcc/arm-none-eabi/5.4.1/../../../../arm-none-eabi/lib/armv7e-m\libg.a(lib_a-svfiprintf.o)
 .rodata.zeroes.7236
                0x0801b1b0       0x10 c:/program files (x86)/gnu tools arm embedded/5.4 2016q3/bin/../lib/gcc/arm-none-eabi/5.4.1/../../../../arm-none-eabi/lib/armv7e-m\libg.a(lib_a-svfiprintf.o)
 .rodata.str1.4
                0x0801b1c0       0x10 c:/program files (x86)/gnu tools arm embedded/5.4 2016q3/bin/../lib/gcc/arm-none-eabi/5.4.1/../../../../arm-none-eabi/lib/armv7e-m\libg.a(lib_a-locale.o)
                                 0x12 (size before relaxing)
 .rodata._ctype_
                0x0801b1d0      0x101 c:/program files (x86)/gnu tools arm embedded/5.4 2016q3/bin/../lib/gcc/arm-none-eabi/5.4.1/../../../../arm-none-eabi/lib/armv7e-m\libg.a(lib_a-ctype_.o)
                0x0801b1d0                _ctype_
 *(.eh_fram e*)

.glue_7         0x0801b2d4        0x0
 .glue_7        0x0801b2d4        0x0 linker stubs

.glue_7t        0x0801b2d4        0x0
 .glue_7t       0x0801b2d4        0x0 linker stubs

.vfp11_veneer   0x0801b2d4        0x0
 .vfp11_veneer  0x0801b2d4        0x0 linker stubs

.v4_bx          0x0801b2d4        0x0
 .v4_bx         0x0801b2d4        0x0 linker stubs

.iplt           0x0801b2d4        0x0
 .iplt          0x0801b2d4        0x0 ..\obj\tm_stm32f4_fatfs.o

.ARM.extab      0x0801b2d1        0x0
 *(.ARM.extab* .gnu.linkonce.armextab.*)
 .ARM.extab     0x0801b2d1        0x0 c:/program files (x86)/gnu tools arm embedded/5.4 2016q3/bin/../lib/gcc/arm-none-eabi/5.4.1/armv7e-m\libgcc.a(_udivmoddi4.o)
                0x0801b2d1                __exidx_start = .

.ARM.exidx      0x0801b2d4        0x8
 *(.ARM.exidx* .gnu.linkonce.armexidx.*)
 .ARM.exidx     0x0801b2d4        0x8 c:/program files (x86)/gnu tools arm embedded/5.4 2016q3/bin/../lib/gcc/arm-none-eabi/5.4.1/armv7e-m\libgcc.a(_udivmoddi4.o)
                0x0801b2dc                __exidx_end = .
                0x0801b2dc                __etext = .
                0x0801b2dc                _sidata = __etext

.rel.dyn        0x0801b2dc        0x0
 .rel.iplt      0x0801b2dc        0x0 ..\obj\tm_stm32f4_fatfs.o

.data           0x20000000      0xdb0 load address 0x0801b2dc
                0x20000000                __data_start__ = .
                0x20000000                _sdata = __data_start__
 *(vtable)
 *(.data*)
 .data          0x20000000        0x0 ..\obj\tm_stm32f4_fatfs.o
 .data          0x20000000        0x0 ..\obj\unicode.o
 .data          0x20000000        0x0 ..\obj\stm32f4xx_syscfg.o
 .data          0x20000000        0x0 ..\obj\usb_core.o
 .data          0x20000000        0x0 ..\obj\dqchan.o
 .data          0x20000000        0x0 ..\obj\scalfact.o
 .data          0x20000000        0x0 ..\obj\pcm.o
 .data          0x20000000        0x0 ..\obj\i2c.o
 .data          0x20000000        0x2 ..\obj\mp3.o
                0x20000000                loadneeded
                0x20000001                Mp3_Status
 .data          0x20000002        0x0 ..\obj\bitstream.o
 .data          0x20000002        0x0 ..\obj\dequant.o
 .data          0x20000002        0x0 ..\obj\tm_stm32f4_exti.o
 .data          0x20000002        0x0 ..\obj\hufftabs.o
 .data          0x20000002        0x0 ..\obj\imdct.o
 .data          0x20000002        0x0 ..\obj\timer.o
 .data          0x20000002        0x0 ..\obj\usbh_hcs.o
 .data          0x20000002        0x0 ..\obj\stm32f4xx_usart.o
 .data          0x20000002        0x0 ..\obj\usbh_stdreq.o
 .data          0x20000002        0x0 ..\obj\mp3tabs.o
 .data          0x20000002        0x0 ..\obj\str.o
 .data          0x20000002        0x0 ..\obj\subband.o
 *fill*         0x20000002        0x2 
 .data          0x20000004       0xb4 ..\obj\diskio.o
                0x20000004                FATFS_LowLevelDrivers
 .data          0x200000b8        0x0 ..\obj\startup_stm32f4xx.o
 .data          0x200000b8        0x1 ..\obj\fatfs_usb.o
 .data          0x200000b9        0x0 ..\obj\mp3dec.o
 .data          0x200000b9        0x0 ..\obj\main.o
 *fill*         0x200000b9        0x3 
 .data          0x200000bc       0x10 ..\obj\stm32f4xx_rcc.o
 .data          0x200000cc       0x60 ..\obj\tm_stm32f4_usart.o
                0x200000cc                TM_USART1
                0x200000dc                TM_USART2
                0x200000ec                TM_USART3
                0x200000fc                TM_USART6
                0x2000010c                TM_UART5
                0x2000011c                TM_UART4
 .data          0x2000012c        0x0 ..\obj\tm_stm32f4_rotary_encoder.o
 .data          0x2000012c        0x1 ..\obj\fatfs_sd.o
 *fill*         0x2000012d        0x3 
 .data          0x20000130       0x10 ..\obj\usbh_msc_core.o
                0x20000130                USBH_MSC_cb
 .data          0x20000140        0x0 ..\obj\bt.o
 .data          0x20000140        0x0 ..\obj\gpio.o
 .data          0x20000140        0x0 ..\obj\tm_stm32f4_delay.o
 .data          0x20000140        0x0 ..\obj\file.o
 .data          0x20000140        0x0 ..\obj\syscall.o
 .data          0x20000140        0x0 ..\obj\tm_stm32f4_spi.o
 .data          0x20000140       0x21 ..\obj\menu.o
                0x20000140                SourceStrings
                0x2000014c                MenuStrings
 *fill*         0x20000161        0x3 
 .data          0x20000164       0x10 ..\obj\usbh_core.o
                0x20000164                USBH_HCD_INT_fops
                0x20000168                USBH_HCD_INT_cb
 .data          0x20000174        0x0 ..\obj\stm32f4xx_gpio.o
 .data          0x20000174        0x0 ..\obj\id3.o
 .data          0x20000174        0x1 ..\obj\usbh_msc_scsi.o
 *fill*         0x20000175        0x3 
 .data          0x20000178       0x14 ..\obj\system_stm32f4xx.o
                0x20000178                SystemCoreClock
                0x2000017c                AHBPrescTable
 .data          0x2000018c        0x1 ..\obj\DMA.o
                0x2000018c                DmaAudioDone
 .data          0x2000018d        0x0 ..\obj\syscalls.o
 .data          0x2000018d        0x0 ..\obj\stm32f4xx_dma.o
 *fill*         0x2000018d        0x3 
 .data          0x20000190       0x48 ..\obj\usbh_usr.o
                0x20000190                USR_Callbacks
 .data          0x200001d8        0x0 ..\obj\i2s.o
 .data          0x200001d8        0x0 ..\obj\usb_bsp.o
 .data          0x200001d8        0x0 ..\obj\tm_stm32f4_usb_msc_host.o
 .data          0x200001d8        0x0 ..\obj\stproc.o
 .data          0x200001d8        0x0 ..\obj\huffman.o
 .data          0x200001d8        0x0 ..\obj\trigtabs_fixpt.o
 .data          0x200001d8        0x0 ..\obj\preamp.o
 .data          0x200001d8        0x0 ..\obj\buffers.o
 .data          0x200001d8        0x0 ..\obj\ff.o
 .data          0x200001d8        0x0 ..\obj\usb_hcd.o
 .data          0x200001d8        0x0 ..\obj\usbh_msc_bot.o
 .data          0x200001d8        0x0 ..\obj\stm32f4xx_spi.o
 .data          0x200001d8        0x0 ..\obj\dct32.o
 .data          0x200001d8        0x0 ..\obj\stm32f4xx_i2c.o
 .data          0x200001d8        0x0 ..\obj\stm32f4xx_exti.o
 .data          0x200001d8        0x0 ..\obj\usbh_ioreq.o
 .data          0x200001d8        0x0 ..\obj\misc.o
 .data          0x200001d8      0x229 ..\obj\glcd.o
                0x200001d8                LCDPort
                0x200001f8                LCDPin
                0x20000208                fontdata
 .data          0x20000401        0x0 ..\obj\tm_stm32f4_gpio.o
 .data          0x20000401        0x0 ..\obj\polyphase.o
 .data          0x20000401        0x0 ..\obj\tm_stm32f4_timer_properties.o
 .data          0x20000401        0x0 ..\obj\stm32f4xx_tim.o
 .data          0x20000401        0x0 ..\obj\usb_hcd_int.o
 .data          0x20000401        0x0 c:/program files (x86)/gnu tools arm embedded/5.4 2016q3/bin/../lib/gcc/arm-none-eabi/5.4.1/armv7e-m\libgcc.a(_arm_addsubdf3.o)
 .data          0x20000401        0x0 c:/program files (x86)/gnu tools arm embedded/5.4 2016q3/bin/../lib/gcc/arm-none-eabi/5.4.1/armv7e-m\libgcc.a(_arm_muldivdf3.o)
 .data          0x20000401        0x0 c:/program files (x86)/gnu tools arm embedded/5.4 2016q3/bin/../lib/gcc/arm-none-eabi/5.4.1/armv7e-m\libgcc.a(_arm_cmpdf2.o)
 .data          0x20000401        0x0 c:/program files (x86)/gnu tools arm embedded/5.4 2016q3/bin/../lib/gcc/arm-none-eabi/5.4.1/armv7e-m\libgcc.a(_arm_fixunsdfsi.o)
 .data          0x20000401        0x0 c:/program files (x86)/gnu tools arm embedded/5.4 2016q3/bin/../lib/gcc/arm-none-eabi/5.4.1/../../../../arm-none-eabi/lib/armv7e-m\libg.a(lib_a-malloc.o)
 .data          0x20000401        0x0 c:/program files (x86)/gnu tools arm embedded/5.4 2016q3/bin/../lib/gcc/arm-none-eabi/5.4.1/../../../../arm-none-eabi/lib/armv7e-m\libg.a(lib_a-mallocr.o)
 *fill*         0x20000401        0x3 
 .data.__malloc_av_
                0x20000404      0x408 c:/program files (x86)/gnu tools arm embedded/5.4 2016q3/bin/../lib/gcc/arm-none-eabi/5.4.1/../../../../arm-none-eabi/lib/armv7e-m\libg.a(lib_a-mallocr.o)
                0x20000404                __malloc_av_
 .data.__malloc_trim_threshold
                0x2000080c        0x4 c:/program files (x86)/gnu tools arm embedded/5.4 2016q3/bin/../lib/gcc/arm-none-eabi/5.4.1/../../../../arm-none-eabi/lib/armv7e-m\libg.a(lib_a-mallocr.o)
                0x2000080c                __malloc_trim_threshold
 .data.__malloc_sbrk_base
                0x20000810        0x4 c:/program files (x86)/gnu tools arm embedded/5.4 2016q3/bin/../lib/gcc/arm-none-eabi/5.4.1/../../../../arm-none-eabi/lib/armv7e-m\libg.a(lib_a-mallocr.o)
                0x20000810                __malloc_sbrk_base
 .data          0x20000814        0x0 c:/program files (x86)/gnu tools arm embedded/5.4 2016q3/bin/../lib/gcc/arm-none-eabi/5.4.1/../../../../arm-none-eabi/lib/armv7e-m\libg.a(lib_a-memcpy.o)
 .data          0x20000814        0x0 c:/program files (x86)/gnu tools arm embedded/5.4 2016q3/bin/../lib/gcc/arm-none-eabi/5.4.1/../../../../arm-none-eabi/lib/armv7e-m\libg.a(lib_a-memmove.o)
 .data          0x20000814        0x0 c:/program files (x86)/gnu tools arm embedded/5.4 2016q3/bin/../lib/gcc/arm-none-eabi/5.4.1/../../../../arm-none-eabi/lib/armv7e-m\libg.a(lib_a-mlock.o)
 .data          0x20000814        0x0 c:/program files (x86)/gnu tools arm embedded/5.4 2016q3/bin/../lib/gcc/arm-none-eabi/5.4.1/../../../../arm-none-eabi/lib/armv7e-m\libg.a(lib_a-realloc.o)
 .data          0x20000814        0x0 c:/program files (x86)/gnu tools arm embedded/5.4 2016q3/bin/../lib/gcc/arm-none-eabi/5.4.1/../../../../arm-none-eabi/lib/armv7e-m\libg.a(lib_a-reallocr.o)
 .data          0x20000814        0x0 c:/program files (x86)/gnu tools arm embedded/5.4 2016q3/bin/../lib/gcc/arm-none-eabi/5.4.1/../../../../arm-none-eabi/lib/armv7e-m\libg.a(lib_a-sbrkr.o)
 .data          0x20000814        0x0 c:/program files (x86)/gnu tools arm embedded/5.4 2016q3/bin/../lib/gcc/arm-none-eabi/5.4.1/../../../../arm-none-eabi/lib/armv7e-m\libg.a(lib_a-sprintf.o)
 .data          0x20000814        0x0 c:/program files (x86)/gnu tools arm embedded/5.4 2016q3/bin/../lib/gcc/arm-none-eabi/5.4.1/../../../../arm-none-eabi/lib/armv7e-m\libg.a(lib_a-strcpy.o)
 .data          0x20000814        0x0 c:/program files (x86)/gnu tools arm embedded/5.4 2016q3/bin/../lib/gcc/arm-none-eabi/5.4.1/../../../../arm-none-eabi/lib/armv7e-m\libg.a(lib_a-strlen.o)
 .data          0x20000814        0x0 c:/program files (x86)/gnu tools arm embedded/5.4 2016q3/bin/../lib/gcc/arm-none-eabi/5.4.1/../../../../arm-none-eabi/lib/armv7e-m\libg.a(lib_a-svfprintf.o)
 .data          0x20000814        0x0 c:/program files (x86)/gnu tools arm embedded/5.4 2016q3/bin/../lib/gcc/arm-none-eabi/5.4.1/../../../../arm-none-eabi/lib/armv7e-m\libg.a(lib_a-dtoa.o)
 .data          0x20000814        0x0 c:/program files (x86)/gnu tools arm embedded/5.4 2016q3/bin/../lib/gcc/arm-none-eabi/5.4.1/../../../../arm-none-eabi/lib/armv7e-m\libg.a(lib_a-freer.o)
 .data          0x20000814        0x0 c:/program files (x86)/gnu tools arm embedded/5.4 2016q3/bin/../lib/gcc/arm-none-eabi/5.4.1/../../../../arm-none-eabi/lib/armv7e-m\libg.a(lib_a-impure.o)
 *fill*         0x20000814        0x4 
 .data.impure_data
                0x20000818      0x428 c:/program files (x86)/gnu tools arm embedded/5.4 2016q3/bin/../lib/gcc/arm-none-eabi/5.4.1/../../../../arm-none-eabi/lib/armv7e-m\libg.a(lib_a-impure.o)
 .data._impure_ptr
                0x20000c40        0x4 c:/program files (x86)/gnu tools arm embedded/5.4 2016q3/bin/../lib/gcc/arm-none-eabi/5.4.1/../../../../arm-none-eabi/lib/armv7e-m\libg.a(lib_a-impure.o)
                0x20000c40                _impure_ptr
 .data          0x20000c44        0x0 c:/program files (x86)/gnu tools arm embedded/5.4 2016q3/bin/../lib/gcc/arm-none-eabi/5.4.1/../../../../arm-none-eabi/lib/armv7e-m\libg.a(lib_a-localeconv.o)
 .data          0x20000c44        0x0 c:/program files (x86)/gnu tools arm embedded/5.4 2016q3/bin/../lib/gcc/arm-none-eabi/5.4.1/../../../../arm-none-eabi/lib/armv7e-m\libg.a(lib_a-memchr.o)
 .data          0x20000c44        0x0 c:/program files (x86)/gnu tools arm embedded/5.4 2016q3/bin/../lib/gcc/arm-none-eabi/5.4.1/../../../../arm-none-eabi/lib/armv7e-m\libg.a(lib_a-mprec.o)
 .data          0x20000c44        0x0 c:/program files (x86)/gnu tools arm embedded/5.4 2016q3/bin/../lib/gcc/arm-none-eabi/5.4.1/../../../../arm-none-eabi/lib/armv7e-m\libg.a(lib_a-reent.o)
 .data          0x20000c44        0x0 c:/program files (x86)/gnu tools arm embedded/5.4 2016q3/bin/../lib/gcc/arm-none-eabi/5.4.1/../../../../arm-none-eabi/lib/armv7e-m\libg.a(lib_a-svfiprintf.o)
 .data          0x20000c44        0x0 c:/program files (x86)/gnu tools arm embedded/5.4 2016q3/bin/../lib/gcc/arm-none-eabi/5.4.1/../../../../arm-none-eabi/lib/armv7e-m\libg.a(lib_a-callocr.o)
 .data          0x20000c44        0x0 c:/program files (x86)/gnu tools arm embedded/5.4 2016q3/bin/../lib/gcc/arm-none-eabi/5.4.1/../../../../arm-none-eabi/lib/armv7e-m\libg.a(lib_a-locale.o)
 .data.__global_locale
                0x20000c44      0x16c c:/program files (x86)/gnu tools arm embedded/5.4 2016q3/bin/../lib/gcc/arm-none-eabi/5.4.1/../../../../arm-none-eabi/lib/armv7e-m\libg.a(lib_a-locale.o)
                0x20000c44                __global_locale
 .data          0x20000db0        0x0 c:/program files (x86)/gnu tools arm embedded/5.4 2016q3/bin/../lib/gcc/arm-none-eabi/5.4.1/../../../../arm-none-eabi/lib/armv7e-m\libg.a(lib_a-mbtowc_r.o)
 .data          0x20000db0        0x0 c:/program files (x86)/gnu tools arm embedded/5.4 2016q3/bin/../lib/gcc/arm-none-eabi/5.4.1/../../../../arm-none-eabi/lib/armv7e-m\libg.a(lib_a-memset.o)
 .data          0x20000db0        0x0 c:/program files (x86)/gnu tools arm embedded/5.4 2016q3/bin/../lib/gcc/arm-none-eabi/5.4.1/../../../../arm-none-eabi/lib/armv7e-m\libg.a(lib_a-strcmp.o)
 .data          0x20000db0        0x0 c:/program files (x86)/gnu tools arm embedded/5.4 2016q3/bin/../lib/gcc/arm-none-eabi/5.4.1/../../../../arm-none-eabi/lib/armv7e-m\libg.a(lib_a-wctomb_r.o)
 .data          0x20000db0        0x0 c:/program files (x86)/gnu tools arm embedded/5.4 2016q3/bin/../lib/gcc/arm-none-eabi/5.4.1/../../../../arm-none-eabi/lib/armv7e-m\libg.a(lib_a-ctype_.o)
 .data          0x20000db0        0x0 c:/program files (x86)/gnu tools arm embedded/5.4 2016q3/bin/../lib/gcc/arm-none-eabi/5.4.1/armv7e-m\libgcc.a(_arm_unorddf2.o)
 .data          0x20000db0        0x0 c:/program files (x86)/gnu tools arm embedded/5.4 2016q3/bin/../lib/gcc/arm-none-eabi/5.4.1/armv7e-m\libgcc.a(_arm_fixdfsi.o)
 .data          0x20000db0        0x0 c:/program files (x86)/gnu tools arm embedded/5.4 2016q3/bin/../lib/gcc/arm-none-eabi/5.4.1/armv7e-m\libgcc.a(_aeabi_uldivmod.o)
 .data          0x20000db0        0x0 c:/program files (x86)/gnu tools arm embedded/5.4 2016q3/bin/../lib/gcc/arm-none-eabi/5.4.1/armv7e-m\libgcc.a(_udivmoddi4.o)
 .data          0x20000db0        0x0 c:/program files (x86)/gnu tools arm embedded/5.4 2016q3/bin/../lib/gcc/arm-none-eabi/5.4.1/armv7e-m\libgcc.a(_dvmd_tls.o)
                0x20000db0                . = ALIGN (0x4)
                [!provide]                PROVIDE (__preinit_array_start, .)
 *(.preinit_array)
                [!provide]                PROVIDE (__preinit_array_end, .)
                0x20000db0                . = ALIGN (0x4)
                [!provide]                PROVIDE (__init_array_start, .)
 *(SORT(.init_array.*))
 *(.init_array)
                [!provide]                PROVIDE (__init_array_end, .)
                0x20000db0                . = ALIGN (0x4)
                [!provide]                PROVIDE (__fini_array_start, .)
 *(SORT(.fini_array.*))
 *(.fini_array)
                [!provide]                PROVIDE (__fini_array_end, .)
 *(.jcr*)
                0x20000db0                . = ALIGN (0x4)
                0x20000db0                __data_end__ = .
                0x20000db0                _edata = __data_end__

.igot.plt       0x20000db0        0x0 load address 0x0801c08c
 .igot.plt      0x20000db0        0x0 ..\obj\tm_stm32f4_fatfs.o

.bss            0x20000db0    0x141b0 load address 0x0801c08c
                0x20000db0                . = ALIGN (0x4)
                0x20000db0                __bss_start__ = .
                0x20000db0                _sbss = __bss_start__
 *(.bss*)
 .bss           0x20000db0        0x0 ..\obj\tm_stm32f4_fatfs.o
 .bss           0x20000db0        0x0 ..\obj\unicode.o
 .bss           0x20000db0        0x0 ..\obj\stm32f4xx_syscfg.o
 .bss           0x20000db0        0x0 ..\obj\usb_core.o
 .bss           0x20000db0        0x0 ..\obj\dqchan.o
 .bss           0x20000db0        0x0 ..\obj\scalfact.o
 .bss           0x20000db0        0x0 ..\obj\pcm.o
 .bss           0x20000db0        0x0 ..\obj\i2c.o
 .bss           0x20000db0       0x20 ..\obj\mp3.o
                0x20000db0                Mp3ActIndex
                0x20000db4                Mp3TrackChanged
                0x20000db8                Mp3Count
                0x20000dc4                Mp3ActTrack
                0x20000dc8                tMp3Array
                0x20000dcc                Mp3Array
 .bss           0x20000dd0        0x0 ..\obj\bitstream.o
 .bss           0x20000dd0        0x0 ..\obj\dequant.o
 .bss           0x20000dd0        0x0 ..\obj\tm_stm32f4_exti.o
 .bss           0x20000dd0        0x0 ..\obj\hufftabs.o
 .bss           0x20000dd0        0x0 ..\obj\imdct.o
 .bss           0x20000dd0        0x0 ..\obj\timer.o
 .bss           0x20000dd0        0x0 ..\obj\usbh_hcs.o
 .bss           0x20000dd0        0x0 ..\obj\stm32f4xx_usart.o
 .bss           0x20000dd0        0x3 ..\obj\usbh_stdreq.o
 .bss           0x20000dd3        0x0 ..\obj\mp3tabs.o
 .bss           0x20000dd3        0x0 ..\obj\str.o
 .bss           0x20000dd3        0x0 ..\obj\subband.o
 .bss           0x20000dd3        0x0 ..\obj\diskio.o
 .bss           0x20000dd3        0x0 ..\obj\startup_stm32f4xx.o
 .bss           0x20000dd3        0x0 ..\obj\fatfs_usb.o
 .bss           0x20000dd3        0x0 ..\obj\mp3dec.o
 .bss           0x20000dd3        0x0 ..\obj\main.o
 .bss           0x20000dd3        0x0 ..\obj\stm32f4xx_rcc.o
 .bss           0x20000dd3        0x0 ..\obj\tm_stm32f4_usart.o
 .bss           0x20000dd3        0x0 ..\obj\tm_stm32f4_rotary_encoder.o
 .bss           0x20000dd3        0x1 ..\obj\fatfs_sd.o
 .bss           0x20000dd4        0x2 ..\obj\usbh_msc_core.o
                0x20000dd4                MSCErrorCount
 .bss           0x20000dd6        0x0 ..\obj\bt.o
 .bss           0x20000dd6        0x0 ..\obj\gpio.o
 *fill*         0x20000dd6        0x2 
 .bss           0x20000dd8       0x2c ..\obj\tm_stm32f4_delay.o
                0x20000dd8                prescaler
                0x20000ddc                TM_Time
                0x20000de0                TM_Time2
                0x20000dfc                TM_DELAY_Initialized
                0x20000e00                TM_TimingDelay
 .bss           0x20000e04        0x0 ..\obj\file.o
 .bss           0x20000e04        0x0 ..\obj\syscall.o
 .bss           0x20000e04        0x0 ..\obj\tm_stm32f4_spi.o
 .bss           0x20000e04       0x31 ..\obj\menu.o
                0x20000e33                x
                0x20000e34                presscnt
 *fill*         0x20000e35        0x1 
 .bss           0x20000e36        0x2 ..\obj\usbh_core.o
 .bss           0x20000e38        0x0 ..\obj\stm32f4xx_gpio.o
 .bss           0x20000e38        0x0 ..\obj\id3.o
 .bss           0x20000e38        0x0 ..\obj\usbh_msc_scsi.o
 .bss           0x20000e38        0x0 ..\obj\system_stm32f4xx.o
 .bss           0x20000e38        0x0 ..\obj\DMA.o
 .bss           0x20000e38        0x4 ..\obj\syscalls.o
 .bss           0x20000e3c        0x0 ..\obj\stm32f4xx_dma.o
 .bss           0x20000e3c        0x1 ..\obj\usbh_usr.o
                0x20000e3c                Application
 .bss           0x20000e3d        0x0 ..\obj\i2s.o
 .bss           0x20000e3d        0x0 ..\obj\usb_bsp.o
 .bss           0x20000e3d        0x1 ..\obj\tm_stm32f4_usb_msc_host.o
                0x20000e3d                TM_USB_MSCHOST_INT_Initialized
 .bss           0x20000e3e        0x0 ..\obj\stproc.o
 .bss           0x20000e3e        0x0 ..\obj\huffman.o
 .bss           0x20000e3e        0x0 ..\obj\trigtabs_fixpt.o
 .bss           0x20000e3e        0x0 ..\obj\preamp.o
 *fill*         0x20000e3e        0x2 
 .bss           0x20000e40     0x5d08 ..\obj\buffers.o
 .bss           0x20006b48       0x2a ..\obj\ff.o
 .bss           0x20006b72        0x0 ..\obj\usb_hcd.o
 *fill*         0x20006b72        0x2 
 .bss           0x20006b74       0x11 ..\obj\usbh_msc_bot.o
 .bss           0x20006b85        0x0 ..\obj\stm32f4xx_spi.o
 .bss           0x20006b85        0x0 ..\obj\dct32.o
 .bss           0x20006b85        0x0 ..\obj\stm32f4xx_i2c.o
 .bss           0x20006b85        0x0 ..\obj\stm32f4xx_exti.o
 .bss           0x20006b85        0x0 ..\obj\usbh_ioreq.o
 .bss           0x20006b85        0x0 ..\obj\misc.o
 .bss           0x20006b85        0x0 ..\obj\glcd.o
 *fill*         0x20006b85        0x3 
 .bss           0x20006b88       0x16 ..\obj\tm_stm32f4_gpio.o
 .bss           0x20006b9e        0x0 ..\obj\polyphase.o
 .bss           0x20006b9e        0x0 ..\obj\tm_stm32f4_timer_properties.o
 .bss           0x20006b9e        0x0 ..\obj\stm32f4xx_tim.o
 .bss           0x20006b9e        0x0 ..\obj\usb_hcd_int.o
 .bss           0x20006b9e        0x0 c:/program files (x86)/gnu tools arm embedded/5.4 2016q3/bin/../lib/gcc/arm-none-eabi/5.4.1/armv7e-m\libgcc.a(_arm_addsubdf3.o)
 .bss           0x20006b9e        0x0 c:/program files (x86)/gnu tools arm embedded/5.4 2016q3/bin/../lib/gcc/arm-none-eabi/5.4.1/armv7e-m\libgcc.a(_arm_muldivdf3.o)
 .bss           0x20006b9e        0x0 c:/program files (x86)/gnu tools arm embedded/5.4 2016q3/bin/../lib/gcc/arm-none-eabi/5.4.1/armv7e-m\libgcc.a(_arm_cmpdf2.o)
 .bss           0x20006b9e        0x0 c:/program files (x86)/gnu tools arm embedded/5.4 2016q3/bin/../lib/gcc/arm-none-eabi/5.4.1/armv7e-m\libgcc.a(_arm_fixunsdfsi.o)
 .bss           0x20006b9e        0x0 c:/program files (x86)/gnu tools arm embedded/5.4 2016q3/bin/../lib/gcc/arm-none-eabi/5.4.1/../../../../arm-none-eabi/lib/armv7e-m\libg.a(lib_a-malloc.o)
 .bss           0x20006b9e        0x0 c:/program files (x86)/gnu tools arm embedded/5.4 2016q3/bin/../lib/gcc/arm-none-eabi/5.4.1/../../../../arm-none-eabi/lib/armv7e-m\libg.a(lib_a-mallocr.o)
 *fill*         0x20006b9e        0x2 
 .bss.__malloc_max_total_mem
                0x20006ba0        0x4 c:/program files (x86)/gnu tools arm embedded/5.4 2016q3/bin/../lib/gcc/arm-none-eabi/5.4.1/../../../../arm-none-eabi/lib/armv7e-m\libg.a(lib_a-mallocr.o)
                0x20006ba0                __malloc_max_total_mem
 .bss.__malloc_max_sbrked_mem
                0x20006ba4        0x4 c:/program files (x86)/gnu tools arm embedded/5.4 2016q3/bin/../lib/gcc/arm-none-eabi/5.4.1/../../../../arm-none-eabi/lib/armv7e-m\libg.a(lib_a-mallocr.o)
                0x20006ba4                __malloc_max_sbrked_mem
 .bss.__malloc_top_pad
                0x20006ba8        0x4 c:/program files (x86)/gnu tools arm embedded/5.4 2016q3/bin/../lib/gcc/arm-none-eabi/5.4.1/../../../../arm-none-eabi/lib/armv7e-m\libg.a(lib_a-mallocr.o)
                0x20006ba8                __malloc_top_pad
 .bss.__malloc_current_mallinfo
                0x20006bac       0x28 c:/program files (x86)/gnu tools arm embedded/5.4 2016q3/bin/../lib/gcc/arm-none-eabi/5.4.1/../../../../arm-none-eabi/lib/armv7e-m\libg.a(lib_a-mallocr.o)
                0x20006bac                __malloc_current_mallinfo
 .bss           0x20006bd4        0x0 c:/program files (x86)/gnu tools arm embedded/5.4 2016q3/bin/../lib/gcc/arm-none-eabi/5.4.1/../../../../arm-none-eabi/lib/armv7e-m\libg.a(lib_a-memcpy.o)
 .bss           0x20006bd4        0x0 c:/program files (x86)/gnu tools arm embedded/5.4 2016q3/bin/../lib/gcc/arm-none-eabi/5.4.1/../../../../arm-none-eabi/lib/armv7e-m\libg.a(lib_a-memmove.o)
 .bss           0x20006bd4        0x0 c:/program files (x86)/gnu tools arm embedded/5.4 2016q3/bin/../lib/gcc/arm-none-eabi/5.4.1/../../../../arm-none-eabi/lib/armv7e-m\libg.a(lib_a-mlock.o)
 .bss           0x20006bd4        0x0 c:/program files (x86)/gnu tools arm embedded/5.4 2016q3/bin/../lib/gcc/arm-none-eabi/5.4.1/../../../../arm-none-eabi/lib/armv7e-m\libg.a(lib_a-realloc.o)
 .bss           0x20006bd4        0x0 c:/program files (x86)/gnu tools arm embedded/5.4 2016q3/bin/../lib/gcc/arm-none-eabi/5.4.1/../../../../arm-none-eabi/lib/armv7e-m\libg.a(lib_a-reallocr.o)
 .bss           0x20006bd4        0x0 c:/program files (x86)/gnu tools arm embedded/5.4 2016q3/bin/../lib/gcc/arm-none-eabi/5.4.1/../../../../arm-none-eabi/lib/armv7e-m\libg.a(lib_a-sbrkr.o)
 .bss           0x20006bd4        0x0 c:/program files (x86)/gnu tools arm embedded/5.4 2016q3/bin/../lib/gcc/arm-none-eabi/5.4.1/../../../../arm-none-eabi/lib/armv7e-m\libg.a(lib_a-sprintf.o)
 .bss           0x20006bd4        0x0 c:/program files (x86)/gnu tools arm embedded/5.4 2016q3/bin/../lib/gcc/arm-none-eabi/5.4.1/../../../../arm-none-eabi/lib/armv7e-m\libg.a(lib_a-strcpy.o)
 .bss           0x20006bd4        0x0 c:/program files (x86)/gnu tools arm embedded/5.4 2016q3/bin/../lib/gcc/arm-none-eabi/5.4.1/../../../../arm-none-eabi/lib/armv7e-m\libg.a(lib_a-strlen.o)
 .bss           0x20006bd4        0x0 c:/program files (x86)/gnu tools arm embedded/5.4 2016q3/bin/../lib/gcc/arm-none-eabi/5.4.1/../../../../arm-none-eabi/lib/armv7e-m\libg.a(lib_a-svfprintf.o)
 .bss           0x20006bd4        0x0 c:/program files (x86)/gnu tools arm embedded/5.4 2016q3/bin/../lib/gcc/arm-none-eabi/5.4.1/../../../../arm-none-eabi/lib/armv7e-m\libg.a(lib_a-dtoa.o)
 .bss           0x20006bd4        0x0 c:/program files (x86)/gnu tools arm embedded/5.4 2016q3/bin/../lib/gcc/arm-none-eabi/5.4.1/../../../../arm-none-eabi/lib/armv7e-m\libg.a(lib_a-freer.o)
 .bss           0x20006bd4        0x0 c:/program files (x86)/gnu tools arm embedded/5.4 2016q3/bin/../lib/gcc/arm-none-eabi/5.4.1/../../../../arm-none-eabi/lib/armv7e-m\libg.a(lib_a-impure.o)
 .bss           0x20006bd4        0x0 c:/program files (x86)/gnu tools arm embedded/5.4 2016q3/bin/../lib/gcc/arm-none-eabi/5.4.1/../../../../arm-none-eabi/lib/armv7e-m\libg.a(lib_a-localeconv.o)
 .bss           0x20006bd4        0x0 c:/program files (x86)/gnu tools arm embedded/5.4 2016q3/bin/../lib/gcc/arm-none-eabi/5.4.1/../../../../arm-none-eabi/lib/armv7e-m\libg.a(lib_a-memchr.o)
 .bss           0x20006bd4        0x0 c:/program files (x86)/gnu tools arm embedded/5.4 2016q3/bin/../lib/gcc/arm-none-eabi/5.4.1/../../../../arm-none-eabi/lib/armv7e-m\libg.a(lib_a-mprec.o)
 .bss           0x20006bd4        0x0 c:/program files (x86)/gnu tools arm embedded/5.4 2016q3/bin/../lib/gcc/arm-none-eabi/5.4.1/../../../../arm-none-eabi/lib/armv7e-m\libg.a(lib_a-reent.o)
 .bss           0x20006bd4        0x0 c:/program files (x86)/gnu tools arm embedded/5.4 2016q3/bin/../lib/gcc/arm-none-eabi/5.4.1/../../../../arm-none-eabi/lib/armv7e-m\libg.a(lib_a-svfiprintf.o)
 .bss           0x20006bd4        0x0 c:/program files (x86)/gnu tools arm embedded/5.4 2016q3/bin/../lib/gcc/arm-none-eabi/5.4.1/../../../../arm-none-eabi/lib/armv7e-m\libg.a(lib_a-callocr.o)
 .bss           0x20006bd4        0x0 c:/program files (x86)/gnu tools arm embedded/5.4 2016q3/bin/../lib/gcc/arm-none-eabi/5.4.1/../../../../arm-none-eabi/lib/armv7e-m\libg.a(lib_a-locale.o)
 .bss._PathLocale
                0x20006bd4        0x4 c:/program files (x86)/gnu tools arm embedded/5.4 2016q3/bin/../lib/gcc/arm-none-eabi/5.4.1/../../../../arm-none-eabi/lib/armv7e-m\libg.a(lib_a-locale.o)
                0x20006bd4                _PathLocale
 .bss           0x20006bd8        0x0 c:/program files (x86)/gnu tools arm embedded/5.4 2016q3/bin/../lib/gcc/arm-none-eabi/5.4.1/../../../../arm-none-eabi/lib/armv7e-m\libg.a(lib_a-mbtowc_r.o)
 .bss           0x20006bd8        0x0 c:/program files (x86)/gnu tools arm embedded/5.4 2016q3/bin/../lib/gcc/arm-none-eabi/5.4.1/../../../../arm-none-eabi/lib/armv7e-m\libg.a(lib_a-memset.o)
 .bss           0x20006bd8        0x0 c:/program files (x86)/gnu tools arm embedded/5.4 2016q3/bin/../lib/gcc/arm-none-eabi/5.4.1/../../../../arm-none-eabi/lib/armv7e-m\libg.a(lib_a-strcmp.o)
 .bss           0x20006bd8        0x0 c:/program files (x86)/gnu tools arm embedded/5.4 2016q3/bin/../lib/gcc/arm-none-eabi/5.4.1/../../../../arm-none-eabi/lib/armv7e-m\libg.a(lib_a-wctomb_r.o)
 .bss           0x20006bd8        0x0 c:/program files (x86)/gnu tools arm embedded/5.4 2016q3/bin/../lib/gcc/arm-none-eabi/5.4.1/../../../../arm-none-eabi/lib/armv7e-m\libg.a(lib_a-ctype_.o)
 .bss           0x20006bd8        0x0 c:/program files (x86)/gnu tools arm embedded/5.4 2016q3/bin/../lib/gcc/arm-none-eabi/5.4.1/armv7e-m\libgcc.a(_arm_unorddf2.o)
 .bss           0x20006bd8        0x0 c:/program files (x86)/gnu tools arm embedded/5.4 2016q3/bin/../lib/gcc/arm-none-eabi/5.4.1/armv7e-m\libgcc.a(_arm_fixdfsi.o)
 .bss           0x20006bd8        0x0 c:/program files (x86)/gnu tools arm embedded/5.4 2016q3/bin/../lib/gcc/arm-none-eabi/5.4.1/armv7e-m\libgcc.a(_aeabi_uldivmod.o)
 .bss           0x20006bd8        0x0 c:/program files (x86)/gnu tools arm embedded/5.4 2016q3/bin/../lib/gcc/arm-none-eabi/5.4.1/armv7e-m\libgcc.a(_udivmoddi4.o)
 .bss           0x20006bd8        0x0 c:/program files (x86)/gnu tools arm embedded/5.4 2016q3/bin/../lib/gcc/arm-none-eabi/5.4.1/armv7e-m\libgcc.a(_dvmd_tls.o)
 *(COMMON)
 COMMON         0x20006bd8     0xd35c ..\obj\mp3.o
                0x20006bd8                mp3_buffer
                0x2000b3d8                SD_Fs
                0x2000b60c                USB_Fs
                0x2000b840                hMP3Decoder
                0x2000b844                audio_help_buff
                0x2000d694                mp3_buffer2
                0x20011e94                act_buff
                0x20011e98                audio_buffer
                0x20013ce8                errbr
                0x20013cec                bytes_left
                0x20013cf0                read_ptr
                0x20013cf4                fil
                0x20013f18                mp3FrameInfo
 COMMON         0x20013f34      0x200 ..\obj\usbh_stdreq.o
                0x20013f34                USBH_CfgDesc
 COMMON         0x20014134       0xc0 ..\obj\tm_stm32f4_usart.o
                0x20014134                TM_UART5_Buffer
                0x20014154                TM_USART6_Buffer
                0x20014174                TM_USART3_Buffer
                0x20014194                TM_USART2_Buffer
                0x200141b4                TM_USART1_Buffer
                0x200141d4                TM_UART4_Buffer
 COMMON         0x200141f4      0x214 ..\obj\usbh_msc_core.o
                0x200141f4                MSC_Machine
                0x20014400                MSC_Setup
 COMMON         0x20014408        0x8 ..\obj\tm_stm32f4_delay.o
                0x20014408                sys_delay
                0x2001440c                mult
 COMMON         0x20014410      0x410 ..\obj\usbh_msc_scsi.o
                0x20014410                USBH_DataInBuffer
                0x20014610                USBH_MSC_Param
                0x20014620                USBH_DataOutBuffer
 COMMON         0x20014820      0x6f8 ..\obj\tm_stm32f4_usb_msc_host.o
                0x20014820                USB_OTG_MSC_Core
                0x20014dcc                TM_USB_MSCHOST_INT_Result
                0x20014dd0                USB_Host
 COMMON         0x20014f18        0x4 ..\obj\preamp.o
                0x20014f18                AudioSettings
 COMMON         0x20014f1c       0x40 ..\obj\usbh_msc_bot.o
                0x20014f1c                USBH_MSC_CSWData
                0x20014f2c                USBH_MSC_BOTXferParam
                0x20014f3c                USBH_MSC_CBWData
 COMMON         0x20014f5c        0x4 c:/program files (x86)/gnu tools arm embedded/5.4 2016q3/bin/../lib/gcc/arm-none-eabi/5.4.1/../../../../arm-none-eabi/lib/armv7e-m\libg.a(lib_a-reent.o)
                0x20014f5c                errno
                0x20014f60                . = ALIGN (0x4)
                0x20014f60                __bss_end__ = .
                0x20014f60                _ebss = __bss_end__

.heap           0x20014f60        0x0
                0x20014f60                __end__ = .
                0x20014f60                _end = __end__
                0x20014f60                end = __end__
 *(.heap*)
                0x20014f60                __HeapLimit = .

.co_stack       0x20014f60     0xa000 load address 0x0803023c
                0x20014f60                . = ALIGN (0x8)
 *(.co_stack .co_stack.*)
 .co_stack      0x20014f60     0xa000 ..\obj\startup_stm32f4xx.o
                0x20014f60                pulStack
                0x20020000                __StackTop = (ORIGIN (ram) + LENGTH (ram))
                0x20016000                __StackLimit = (__StackTop - SIZEOF (.co_stack))
                [!provide]                PROVIDE (__stack, __StackTop)
                0x00000001                ASSERT ((__StackLimit >= __HeapLimit), region ram  overflowed with stack)
LOAD ..\obj\tm_stm32f4_fatfs.o
LOAD ..\obj\unicode.o
LOAD ..\obj\stm32f4xx_syscfg.o
LOAD ..\obj\usb_core.o
LOAD ..\obj\dqchan.o
LOAD ..\obj\scalfact.o
LOAD ..\obj\pcm.o
LOAD ..\obj\i2c.o
LOAD ..\obj\mp3.o
LOAD ..\obj\bitstream.o
LOAD ..\obj\dequant.o
LOAD ..\obj\tm_stm32f4_exti.o
LOAD ..\obj\hufftabs.o
LOAD ..\obj\imdct.o
LOAD ..\obj\timer.o
LOAD ..\obj\usbh_hcs.o
LOAD ..\obj\stm32f4xx_usart.o
LOAD ..\obj\usbh_stdreq.o
LOAD ..\obj\mp3tabs.o
LOAD ..\obj\str.o
LOAD ..\obj\subband.o
LOAD ..\obj\diskio.o
LOAD ..\obj\startup_stm32f4xx.o
LOAD ..\obj\fatfs_usb.o
LOAD ..\obj\mp3dec.o
LOAD ..\obj\main.o
LOAD ..\obj\stm32f4xx_rcc.o
LOAD ..\obj\tm_stm32f4_usart.o
LOAD ..\obj\tm_stm32f4_rotary_encoder.o
LOAD ..\obj\fatfs_sd.o
LOAD ..\obj\usbh_msc_core.o
LOAD ..\obj\bt.o
LOAD ..\obj\gpio.o
LOAD ..\obj\tm_stm32f4_delay.o
LOAD ..\obj\file.o
LOAD ..\obj\syscall.o
LOAD ..\obj\tm_stm32f4_spi.o
LOAD ..\obj\menu.o
LOAD ..\obj\usbh_core.o
LOAD ..\obj\stm32f4xx_gpio.o
LOAD ..\obj\id3.o
LOAD ..\obj\usbh_msc_scsi.o
LOAD ..\obj\system_stm32f4xx.o
LOAD ..\obj\DMA.o
LOAD ..\obj\syscalls.o
LOAD ..\obj\stm32f4xx_dma.o
LOAD ..\obj\usbh_usr.o
LOAD ..\obj\i2s.o
LOAD ..\obj\usb_bsp.o
LOAD ..\obj\tm_stm32f4_usb_msc_host.o
LOAD ..\obj\stproc.o
LOAD ..\obj\huffman.o
LOAD ..\obj\trigtabs_fixpt.o
LOAD ..\obj\preamp.o
LOAD ..\obj\buffers.o
LOAD ..\obj\ff.o
LOAD ..\obj\usb_hcd.o
LOAD ..\obj\usbh_msc_bot.o
LOAD ..\obj\stm32f4xx_spi.o
LOAD ..\obj\dct32.o
LOAD ..\obj\stm32f4xx_i2c.o
LOAD ..\obj\stm32f4xx_exti.o
LOAD ..\obj\usbh_ioreq.o
LOAD ..\obj\misc.o
LOAD ..\obj\glcd.o
LOAD ..\obj\tm_stm32f4_gpio.o
LOAD ..\obj\polyphase.o
LOAD ..\obj\tm_stm32f4_timer_properties.o
LOAD ..\obj\stm32f4xx_tim.o
LOAD ..\obj\usb_hcd_int.o
START GROUP
LOAD c:/program files (x86)/gnu tools arm embedded/5.4 2016q3/bin/../lib/gcc/arm-none-eabi/5.4.1/armv7e-m\libgcc.a
LOAD c:/program files (x86)/gnu tools arm embedded/5.4 2016q3/bin/../lib/gcc/arm-none-eabi/5.4.1/../../../../arm-none-eabi/lib/armv7e-m\libg.a
LOAD c:/program files (x86)/gnu tools arm embedded/5.4 2016q3/bin/../lib/gcc/arm-none-eabi/5.4.1/../../../../arm-none-eabi/lib/armv7e-m\libc.a
END GROUP
OUTPUT(AmpNew.elf elf32-littlearm)

.debug_info     0x00000000    0x3784e
 .debug_info    0x00000000      0xb52 ..\obj\tm_stm32f4_fatfs.o
 .debug_info    0x00000b52       0x59 ..\obj\unicode.o
 .debug_info    0x00000bab      0x2b6 ..\obj\stm32f4xx_syscfg.o
 .debug_info    0x00000e61     0x21af ..\obj\usb_core.o
 .debug_info    0x00003010      0x963 ..\obj\dqchan.o
 .debug_info    0x00003973      0xbc4 ..\obj\scalfact.o
 .debug_info    0x00004537       0xa0 ..\obj\pcm.o
 .debug_info    0x000045d7      0x4aa ..\obj\i2c.o
 .debug_info    0x00004a81      0xa44 ..\obj\mp3.o
 .debug_info    0x000054c5      0xb1e ..\obj\bitstream.o
 .debug_info    0x00005fe3      0x8c5 ..\obj\dequant.o
 .debug_info    0x000068a8      0xadf ..\obj\tm_stm32f4_exti.o
 .debug_info    0x00007387      0x1d2 ..\obj\hufftabs.o
 .debug_info    0x00007559     0x2fd1 ..\obj\imdct.o
 .debug_info    0x0000a52a      0x98c ..\obj\timer.o
 .debug_info    0x0000aeb6      0xb1d ..\obj\usbh_hcs.o
 .debug_info    0x0000b9d3      0xb2b ..\obj\stm32f4xx_usart.o
 .debug_info    0x0000c4fe     0x1a8c ..\obj\usbh_stdreq.o
 .debug_info    0x0000df8a      0x1e0 ..\obj\mp3tabs.o
 .debug_info    0x0000e16a      0x129 ..\obj\str.o
 .debug_info    0x0000e293      0x491 ..\obj\subband.o
 .debug_info    0x0000e724      0x8ff ..\obj\diskio.o
 .debug_info    0x0000f023      0x104 ..\obj\startup_stm32f4xx.o
 .debug_info    0x0000f127     0x155f ..\obj\fatfs_usb.o
 .debug_info    0x00010686      0x959 ..\obj\mp3dec.o
 .debug_info    0x00010fdf      0x476 ..\obj\main.o
 .debug_info    0x00011455      0xca2 ..\obj\stm32f4xx_rcc.o
 .debug_info    0x000120f7     0x17b7 ..\obj\tm_stm32f4_usart.o
 .debug_info    0x000138ae      0x462 ..\obj\tm_stm32f4_rotary_encoder.o
 .debug_info    0x00013d10     0x10ca ..\obj\fatfs_sd.o
 .debug_info    0x00014dda     0x181a ..\obj\usbh_msc_core.o
 .debug_info    0x000165f4      0x2e7 ..\obj\bt.o
 .debug_info    0x000168db      0x5c0 ..\obj\gpio.o
 .debug_info    0x00016e9b      0xacf ..\obj\tm_stm32f4_delay.o
 .debug_info    0x0001796a      0x721 ..\obj\file.o
 .debug_info    0x0001808b       0x75 ..\obj\syscall.o
 .debug_info    0x00018100      0xbe4 ..\obj\tm_stm32f4_spi.o
 .debug_info    0x00018ce4     0x1203 ..\obj\menu.o
 .debug_info    0x00019ee7     0x1bad ..\obj\usbh_core.o
 .debug_info    0x0001ba94      0x7db ..\obj\stm32f4xx_gpio.o
 .debug_info    0x0001c26f      0x6c0 ..\obj\id3.o
 .debug_info    0x0001c92f      0xec2 ..\obj\usbh_msc_scsi.o
 .debug_info    0x0001d7f1      0x5ea ..\obj\system_stm32f4xx.o
 .debug_info    0x0001dddb      0x749 ..\obj\DMA.o
 .debug_info    0x0001e524      0x457 ..\obj\syscalls.o
 .debug_info    0x0001e97b      0x741 ..\obj\stm32f4xx_dma.o
 .debug_info    0x0001f0bc      0x66f ..\obj\usbh_usr.o
 .debug_info    0x0001f72b      0x6ab ..\obj\i2s.o
 .debug_info    0x0001fdd6     0x10c7 ..\obj\usb_bsp.o
 .debug_info    0x00020e9d     0x137b ..\obj\tm_stm32f4_usb_msc_host.o
 .debug_info    0x00022218      0xd1a ..\obj\stproc.o
 .debug_info    0x00022f32      0xbbe ..\obj\huffman.o
 .debug_info    0x00023af0      0x1ce ..\obj\trigtabs_fixpt.o
 .debug_info    0x00023cbe      0x85c ..\obj\preamp.o
 .debug_info    0x0002451a      0x9c2 ..\obj\buffers.o
 .debug_info    0x00024edc     0x3973 ..\obj\ff.o
 .debug_info    0x0002884f      0xd56 ..\obj\usb_hcd.o
 .debug_info    0x000295a5     0x182d ..\obj\usbh_msc_bot.o
 .debug_info    0x0002add2      0xbbe ..\obj\stm32f4xx_spi.o
 .debug_info    0x0002b990      0xbdb ..\obj\dct32.o
 .debug_info    0x0002c56b      0xbb6 ..\obj\stm32f4xx_i2c.o
 .debug_info    0x0002d121      0x35a ..\obj\stm32f4xx_exti.o
 .debug_info    0x0002d47b     0x1628 ..\obj\usbh_ioreq.o
 .debug_info    0x0002eaa3      0x55c ..\obj\misc.o
 .debug_info    0x0002efff      0x86b ..\obj\glcd.o
 .debug_info    0x0002f86a      0x919 ..\obj\tm_stm32f4_gpio.o
 .debug_info    0x00030183     0x2c78 ..\obj\polyphase.o
 .debug_info    0x00032dfb      0x769 ..\obj\tm_stm32f4_timer_properties.o
 .debug_info    0x00033564     0x21ba ..\obj\stm32f4xx_tim.o
 .debug_info    0x0003571e     0x2130 ..\obj\usb_hcd_int.o

.debug_abbrev   0x00000000     0x824d
 .debug_abbrev  0x00000000      0x1ff ..\obj\tm_stm32f4_fatfs.o
 .debug_abbrev  0x000001ff       0x24 ..\obj\unicode.o
 .debug_abbrev  0x00000223      0x15f ..\obj\stm32f4xx_syscfg.o
 .debug_abbrev  0x00000382      0x38f ..\obj\usb_core.o
 .debug_abbrev  0x00000711      0x1fd ..\obj\dqchan.o
 .debug_abbrev  0x0000090e      0x1fc ..\obj\scalfact.o
 .debug_abbrev  0x00000b0a       0x4b ..\obj\pcm.o
 .debug_abbrev  0x00000b55      0x147 ..\obj\i2c.o
 .debug_abbrev  0x00000c9c      0x2ad ..\obj\mp3.o
 .debug_abbrev  0x00000f49      0x299 ..\obj\bitstream.o
 .debug_abbrev  0x000011e2      0x1d9 ..\obj\dequant.o
 .debug_abbrev  0x000013bb      0x1f0 ..\obj\tm_stm32f4_exti.o
 .debug_abbrev  0x000015ab       0xad ..\obj\hufftabs.o
 .debug_abbrev  0x00001658      0x360 ..\obj\imdct.o
 .debug_abbrev  0x000019b8      0x169 ..\obj\timer.o
 .debug_abbrev  0x00001b21      0x202 ..\obj\usbh_hcs.o
 .debug_abbrev  0x00001d23      0x1b9 ..\obj\stm32f4xx_usart.o
 .debug_abbrev  0x00001edc      0x360 ..\obj\usbh_stdreq.o
 .debug_abbrev  0x0000223c       0x79 ..\obj\mp3tabs.o
 .debug_abbrev  0x000022b5       0xb7 ..\obj\str.o
 .debug_abbrev  0x0000236c      0x148 ..\obj\subband.o
 .debug_abbrev  0x000024b4      0x206 ..\obj\diskio.o
 .debug_abbrev  0x000026ba       0xdc ..\obj\startup_stm32f4xx.o
 .debug_abbrev  0x00002796      0x28f ..\obj\fatfs_usb.o
 .debug_abbrev  0x00002a25      0x295 ..\obj\mp3dec.o
 .debug_abbrev  0x00002cba      0x155 ..\obj\main.o
 .debug_abbrev  0x00002e0f      0x20b ..\obj\stm32f4xx_rcc.o
 .debug_abbrev  0x0000301a      0x282 ..\obj\tm_stm32f4_usart.o
 .debug_abbrev  0x0000329c      0x17b ..\obj\tm_stm32f4_rotary_encoder.o
 .debug_abbrev  0x00003417      0x36a ..\obj\fatfs_sd.o
 .debug_abbrev  0x00003781      0x33b ..\obj\usbh_msc_core.o
 .debug_abbrev  0x00003abc      0x15b ..\obj\bt.o
 .debug_abbrev  0x00003c17      0x147 ..\obj\gpio.o
 .debug_abbrev  0x00003d5e      0x31b ..\obj\tm_stm32f4_delay.o
 .debug_abbrev  0x00004079      0x1b8 ..\obj\file.o
 .debug_abbrev  0x00004231       0x24 ..\obj\syscall.o
 .debug_abbrev  0x00004255      0x209 ..\obj\tm_stm32f4_spi.o
 .debug_abbrev  0x0000445e      0x2d2 ..\obj\menu.o
 .debug_abbrev  0x00004730      0x329 ..\obj\usbh_core.o
 .debug_abbrev  0x00004a59      0x1e0 ..\obj\stm32f4xx_gpio.o
 .debug_abbrev  0x00004c39      0x151 ..\obj\id3.o
 .debug_abbrev  0x00004d8a      0x222 ..\obj\usbh_msc_scsi.o
 .debug_abbrev  0x00004fac      0x161 ..\obj\system_stm32f4xx.o
 .debug_abbrev  0x0000510d      0x1bf ..\obj\DMA.o
 .debug_abbrev  0x000052cc       0xf4 ..\obj\syscalls.o
 .debug_abbrev  0x000053c0      0x175 ..\obj\stm32f4xx_dma.o
 .debug_abbrev  0x00005535      0x15d ..\obj\usbh_usr.o
 .debug_abbrev  0x00005692      0x141 ..\obj\i2s.o
 .debug_abbrev  0x000057d3      0x274 ..\obj\usb_bsp.o
 .debug_abbrev  0x00005a47      0x259 ..\obj\tm_stm32f4_usb_msc_host.o
 .debug_abbrev  0x00005ca0      0x1c6 ..\obj\stproc.o
 .debug_abbrev  0x00005e66      0x23c ..\obj\huffman.o
 .debug_abbrev  0x000060a2       0x68 ..\obj\trigtabs_fixpt.o
 .debug_abbrev  0x0000610a      0x1b6 ..\obj\preamp.o
 .debug_abbrev  0x000062c0      0x1bd ..\obj\buffers.o
 .debug_abbrev  0x0000647d      0x2c9 ..\obj\ff.o
 .debug_abbrev  0x00006746      0x1e6 ..\obj\usb_hcd.o
 .debug_abbrev  0x0000692c      0x295 ..\obj\usbh_msc_bot.o
 .debug_abbrev  0x00006bc1      0x1ad ..\obj\stm32f4xx_spi.o
 .debug_abbrev  0x00006d6e      0x150 ..\obj\dct32.o
 .debug_abbrev  0x00006ebe      0x1c8 ..\obj\stm32f4xx_i2c.o
 .debug_abbrev  0x00007086      0x1c7 ..\obj\stm32f4xx_exti.o
 .debug_abbrev  0x0000724d      0x284 ..\obj\usbh_ioreq.o
 .debug_abbrev  0x000074d1      0x156 ..\obj\misc.o
 .debug_abbrev  0x00007627      0x1ea ..\obj\glcd.o
 .debug_abbrev  0x00007811      0x1a9 ..\obj\tm_stm32f4_gpio.o
 .debug_abbrev  0x000079ba      0x1fc ..\obj\polyphase.o
 .debug_abbrev  0x00007bb6      0x15c ..\obj\tm_stm32f4_timer_properties.o
 .debug_abbrev  0x00007d12      0x26e ..\obj\stm32f4xx_tim.o
 .debug_abbrev  0x00007f80      0x2cd ..\obj\usb_hcd_int.o

.debug_loc      0x00000000    0x21ee6
 .debug_loc     0x00000000      0x6cc ..\obj\tm_stm32f4_fatfs.o
 .debug_loc     0x000006cc       0xa6 ..\obj\stm32f4xx_syscfg.o
 .debug_loc     0x00000772      0xc58 ..\obj\usb_core.o
 .debug_loc     0x000013ca      0xbfa ..\obj\dqchan.o
 .debug_loc     0x00001fc4     0x10a3 ..\obj\scalfact.o
 .debug_loc     0x00003067       0xdc ..\obj\i2c.o
 .debug_loc     0x00003143      0x321 ..\obj\mp3.o
 .debug_loc     0x00003464      0x6ef ..\obj\bitstream.o
 .debug_loc     0x00003b53      0x273 ..\obj\dequant.o
 .debug_loc     0x00003dc6      0x20d ..\obj\tm_stm32f4_exti.o
 .debug_loc     0x00003fd3     0x43cf ..\obj\imdct.o
 .debug_loc     0x000083a2       0x6e ..\obj\timer.o
 .debug_loc     0x00008410      0x26d ..\obj\usbh_hcs.o
 .debug_loc     0x0000867d      0x7d4 ..\obj\stm32f4xx_usart.o
 .debug_loc     0x00008e51      0x872 ..\obj\usbh_stdreq.o
 .debug_loc     0x000096c3      0x1eb ..\obj\str.o
 .debug_loc     0x000098ae      0x173 ..\obj\subband.o
 .debug_loc     0x00009a21      0x4b5 ..\obj\diskio.o
 .debug_loc     0x00009ed6       0x2b ..\obj\startup_stm32f4xx.o
 .debug_loc     0x00009f01      0x38f ..\obj\fatfs_usb.o
 .debug_loc     0x0000a290      0x79b ..\obj\mp3dec.o
 .debug_loc     0x0000aa2b      0xa7c ..\obj\stm32f4xx_rcc.o
 .debug_loc     0x0000b4a7      0xa78 ..\obj\tm_stm32f4_usart.o
 .debug_loc     0x0000bf1f       0xfe ..\obj\tm_stm32f4_rotary_encoder.o
 .debug_loc     0x0000c01d      0xf45 ..\obj\fatfs_sd.o
 .debug_loc     0x0000cf62      0x4eb ..\obj\usbh_msc_core.o
 .debug_loc     0x0000d44d       0xa8 ..\obj\bt.o
 .debug_loc     0x0000d4f5      0x245 ..\obj\tm_stm32f4_delay.o
 .debug_loc     0x0000d73a      0x1a2 ..\obj\file.o
 .debug_loc     0x0000d8dc      0x686 ..\obj\tm_stm32f4_spi.o
 .debug_loc     0x0000df62      0x261 ..\obj\menu.o
 .debug_loc     0x0000e1c3      0x637 ..\obj\usbh_core.o
 .debug_loc     0x0000e7fa      0x2d2 ..\obj\stm32f4xx_gpio.o
 .debug_loc     0x0000eacc      0x3fc ..\obj\id3.o
 .debug_loc     0x0000eec8      0x46c ..\obj\usbh_msc_scsi.o
 .debug_loc     0x0000f334      0x11b ..\obj\system_stm32f4xx.o
 .debug_loc     0x0000f44f       0x58 ..\obj\DMA.o
 .debug_loc     0x0000f4a7      0x113 ..\obj\syscalls.o
 .debug_loc     0x0000f5ba      0x48b ..\obj\stm32f4xx_dma.o
 .debug_loc     0x0000fa45      0x12e ..\obj\usb_bsp.o
 .debug_loc     0x0000fb73     0x1a0d ..\obj\stproc.o
 .debug_loc     0x00011580     0x131a ..\obj\huffman.o
 .debug_loc     0x0001289a      0x3af ..\obj\preamp.o
 .debug_loc     0x00012c49       0x7d ..\obj\buffers.o
 .debug_loc     0x00012cc6     0x55a2 ..\obj\ff.o
 .debug_loc     0x00018268      0x239 ..\obj\usb_hcd.o
 .debug_loc     0x000184a1      0x439 ..\obj\usbh_msc_bot.o
 .debug_loc     0x000188da      0x69e ..\obj\stm32f4xx_spi.o
 .debug_loc     0x00018f78     0x1b45 ..\obj\dct32.o
 .debug_loc     0x0001aabd      0x728 ..\obj\stm32f4xx_i2c.o
 .debug_loc     0x0001b1e5      0x1bc ..\obj\stm32f4xx_exti.o
 .debug_loc     0x0001b3a1      0x6a1 ..\obj\usbh_ioreq.o
 .debug_loc     0x0001ba42      0x18e ..\obj\misc.o
 .debug_loc     0x0001bbd0      0x487 ..\obj\glcd.o
 .debug_loc     0x0001c057      0x585 ..\obj\tm_stm32f4_gpio.o
 .debug_loc     0x0001c5dc     0x30a0 ..\obj\polyphase.o
 .debug_loc     0x0001f67c      0x36a ..\obj\tm_stm32f4_timer_properties.o
 .debug_loc     0x0001f9e6     0x1c12 ..\obj\stm32f4xx_tim.o
 .debug_loc     0x000215f8      0x8ee ..\obj\usb_hcd_int.o

.debug_aranges  0x00000000     0x1cf8
 .debug_aranges
                0x00000000       0x58 ..\obj\tm_stm32f4_fatfs.o
 .debug_aranges
                0x00000058       0x18 ..\obj\unicode.o
 .debug_aranges
                0x00000070       0x48 ..\obj\stm32f4xx_syscfg.o
 .debug_aranges
                0x000000b8       0xf8 ..\obj\usb_core.o
 .debug_aranges
                0x000001b0       0x28 ..\obj\dqchan.o
 .debug_aranges
                0x000001d8       0x20 ..\obj\scalfact.o
 .debug_aranges
                0x000001f8       0x18 ..\obj\pcm.o
 .debug_aranges
                0x00000210       0x38 ..\obj\i2c.o
 .debug_aranges
                0x00000248       0x70 ..\obj\mp3.o
 .debug_aranges
                0x000002b8       0x48 ..\obj\bitstream.o
 .debug_aranges
                0x00000300       0x20 ..\obj\dequant.o
 .debug_aranges
                0x00000320       0x68 ..\obj\tm_stm32f4_exti.o
 .debug_aranges
                0x00000388       0x18 ..\obj\hufftabs.o
 .debug_aranges
                0x000003a0       0x30 ..\obj\imdct.o
 .debug_aranges
                0x000003d0       0x50 ..\obj\timer.o
 .debug_aranges
                0x00000420       0x40 ..\obj\usbh_hcs.o
 .debug_aranges
                0x00000460      0x100 ..\obj\stm32f4xx_usart.o
 .debug_aranges
                0x00000560       0x60 ..\obj\usbh_stdreq.o
 .debug_aranges
                0x000005c0       0x18 ..\obj\mp3tabs.o
 .debug_aranges
                0x000005d8       0x38 ..\obj\str.o
 .debug_aranges
                0x00000610       0x20 ..\obj\subband.o
 .debug_aranges
                0x00000630      0x118 ..\obj\diskio.o
 .debug_aranges
                0x00000748       0x28 ..\obj\startup_stm32f4xx.o
 .debug_aranges
                0x00000770       0x40 ..\obj\fatfs_usb.o
 .debug_aranges
                0x000007b0       0x50 ..\obj\mp3dec.o
 .debug_aranges
                0x00000800       0x20 ..\obj\main.o
 .debug_aranges
                0x00000820      0x178 ..\obj\stm32f4xx_rcc.o
 .debug_aranges
                0x00000998       0xf8 ..\obj\tm_stm32f4_usart.o
 .debug_aranges
                0x00000a90       0x38 ..\obj\tm_stm32f4_rotary_encoder.o
 .debug_aranges
                0x00000ac8       0x88 ..\obj\fatfs_sd.o
 .debug_aranges
                0x00000b50       0x40 ..\obj\usbh_msc_core.o
 .debug_aranges
                0x00000b90       0x20 ..\obj\bt.o
 .debug_aranges
                0x00000bb0       0x30 ..\obj\gpio.o
 .debug_aranges
                0x00000be0       0x70 ..\obj\tm_stm32f4_delay.o
 .debug_aranges
                0x00000c50       0x28 ..\obj\file.o
 .debug_aranges
                0x00000c78       0x18 ..\obj\syscall.o
 .debug_aranges
                0x00000c90       0x88 ..\obj\tm_stm32f4_spi.o
 .debug_aranges
                0x00000d18       0x98 ..\obj\menu.o
 .debug_aranges
                0x00000db0       0x58 ..\obj\usbh_core.o
 .debug_aranges
                0x00000e08       0x88 ..\obj\stm32f4xx_gpio.o
 .debug_aranges
                0x00000e90       0x28 ..\obj\id3.o
 .debug_aranges
                0x00000eb8       0x48 ..\obj\usbh_msc_scsi.o
 .debug_aranges
                0x00000f00       0x28 ..\obj\system_stm32f4xx.o
 .debug_aranges
                0x00000f28       0x30 ..\obj\DMA.o
 .debug_aranges
                0x00000f58       0x60 ..\obj\syscalls.o
 .debug_aranges
                0x00000fb8       0xb0 ..\obj\stm32f4xx_dma.o
 .debug_aranges
                0x00001068       0xa8 ..\obj\usbh_usr.o
 .debug_aranges
                0x00001110       0x28 ..\obj\i2s.o
 .debug_aranges
                0x00001138       0x58 ..\obj\usb_bsp.o
 .debug_aranges
                0x00001190       0x38 ..\obj\tm_stm32f4_usb_msc_host.o
 .debug_aranges
                0x000011c8       0x30 ..\obj\stproc.o
 .debug_aranges
                0x000011f8       0x20 ..\obj\huffman.o
 .debug_aranges
                0x00001218       0x18 ..\obj\trigtabs_fixpt.o
 .debug_aranges
                0x00001230       0x50 ..\obj\preamp.o
 .debug_aranges
                0x00001280       0x30 ..\obj\buffers.o
 .debug_aranges
                0x000012b0      0x1d8 ..\obj\ff.o
 .debug_aranges
                0x00001488       0x68 ..\obj\usb_hcd.o
 .debug_aranges
                0x000014f0       0x38 ..\obj\usbh_msc_bot.o
 .debug_aranges
                0x00001528       0xe0 ..\obj\stm32f4xx_spi.o
 .debug_aranges
                0x00001608       0x20 ..\obj\dct32.o
 .debug_aranges
                0x00001628      0x120 ..\obj\stm32f4xx_i2c.o
 .debug_aranges
                0x00001748       0x58 ..\obj\stm32f4xx_exti.o
 .debug_aranges
                0x000017a0       0x68 ..\obj\usbh_ioreq.o
 .debug_aranges
                0x00001808       0x40 ..\obj\misc.o
 .debug_aranges
                0x00001848       0x60 ..\obj\glcd.o
 .debug_aranges
                0x000018a8       0x98 ..\obj\tm_stm32f4_gpio.o
 .debug_aranges
                0x00001940       0x28 ..\obj\polyphase.o
 .debug_aranges
                0x00001968       0x38 ..\obj\tm_stm32f4_timer_properties.o
 .debug_aranges
                0x000019a0      0x2e8 ..\obj\stm32f4xx_tim.o
 .debug_aranges
                0x00001c88       0x70 ..\obj\usb_hcd_int.o

.debug_ranges   0x00000000     0x1bd0
 .debug_ranges  0x00000000       0x48 ..\obj\tm_stm32f4_fatfs.o
 .debug_ranges  0x00000048       0x38 ..\obj\stm32f4xx_syscfg.o
 .debug_ranges  0x00000080       0xe8 ..\obj\usb_core.o
 .debug_ranges  0x00000168       0x30 ..\obj\dqchan.o
 .debug_ranges  0x00000198       0x48 ..\obj\scalfact.o
 .debug_ranges  0x000001e0       0x28 ..\obj\i2c.o
 .debug_ranges  0x00000208       0x60 ..\obj\mp3.o
 .debug_ranges  0x00000268       0x38 ..\obj\bitstream.o
 .debug_ranges  0x000002a0       0x10 ..\obj\dequant.o
 .debug_ranges  0x000002b0       0x70 ..\obj\tm_stm32f4_exti.o
 .debug_ranges  0x00000320       0xb8 ..\obj\imdct.o
 .debug_ranges  0x000003d8       0x40 ..\obj\timer.o
 .debug_ranges  0x00000418       0x48 ..\obj\usbh_hcs.o
 .debug_ranges  0x00000460       0xf0 ..\obj\stm32f4xx_usart.o
 .debug_ranges  0x00000550       0xb0 ..\obj\usbh_stdreq.o
 .debug_ranges  0x00000600       0x28 ..\obj\str.o
 .debug_ranges  0x00000628       0x10 ..\obj\subband.o
 .debug_ranges  0x00000638      0x108 ..\obj\diskio.o
 .debug_ranges  0x00000740       0x18 ..\obj\startup_stm32f4xx.o
 .debug_ranges  0x00000758       0x30 ..\obj\fatfs_usb.o
 .debug_ranges  0x00000788       0x58 ..\obj\mp3dec.o
 .debug_ranges  0x000007e0       0x10 ..\obj\main.o
 .debug_ranges  0x000007f0      0x168 ..\obj\stm32f4xx_rcc.o
 .debug_ranges  0x00000958       0xe8 ..\obj\tm_stm32f4_usart.o
 .debug_ranges  0x00000a40       0x28 ..\obj\tm_stm32f4_rotary_encoder.o
 .debug_ranges  0x00000a68       0xf8 ..\obj\fatfs_sd.o
 .debug_ranges  0x00000b60       0x30 ..\obj\usbh_msc_core.o
 .debug_ranges  0x00000b90       0x10 ..\obj\bt.o
 .debug_ranges  0x00000ba0       0x20 ..\obj\gpio.o
 .debug_ranges  0x00000bc0       0x60 ..\obj\tm_stm32f4_delay.o
 .debug_ranges  0x00000c20       0x18 ..\obj\file.o
 .debug_ranges  0x00000c38       0x78 ..\obj\tm_stm32f4_spi.o
 .debug_ranges  0x00000cb0       0x88 ..\obj\menu.o
 .debug_ranges  0x00000d38       0x48 ..\obj\usbh_core.o
 .debug_ranges  0x00000d80       0x78 ..\obj\stm32f4xx_gpio.o
 .debug_ranges  0x00000df8       0x68 ..\obj\id3.o
 .debug_ranges  0x00000e60       0x38 ..\obj\usbh_msc_scsi.o
 .debug_ranges  0x00000e98       0x18 ..\obj\system_stm32f4xx.o
 .debug_ranges  0x00000eb0       0x20 ..\obj\DMA.o
 .debug_ranges  0x00000ed0       0x50 ..\obj\syscalls.o
 .debug_ranges  0x00000f20       0xa0 ..\obj\stm32f4xx_dma.o
 .debug_ranges  0x00000fc0       0x98 ..\obj\usbh_usr.o
 .debug_ranges  0x00001058       0x18 ..\obj\i2s.o
 .debug_ranges  0x00001070       0x48 ..\obj\usb_bsp.o
 .debug_ranges  0x000010b8       0x28 ..\obj\tm_stm32f4_usb_msc_host.o
 .debug_ranges  0x000010e0       0x20 ..\obj\stproc.o
 .debug_ranges  0x00001100       0x68 ..\obj\huffman.o
 .debug_ranges  0x00001168       0x40 ..\obj\preamp.o
 .debug_ranges  0x000011a8       0x20 ..\obj\buffers.o
 .debug_ranges  0x000011c8      0x230 ..\obj\ff.o
 .debug_ranges  0x000013f8       0x58 ..\obj\usb_hcd.o
 .debug_ranges  0x00001450       0x28 ..\obj\usbh_msc_bot.o
 .debug_ranges  0x00001478       0xd0 ..\obj\stm32f4xx_spi.o
 .debug_ranges  0x00001548       0x40 ..\obj\dct32.o
 .debug_ranges  0x00001588      0x110 ..\obj\stm32f4xx_i2c.o
 .debug_ranges  0x00001698       0x48 ..\obj\stm32f4xx_exti.o
 .debug_ranges  0x000016e0       0x58 ..\obj\usbh_ioreq.o
 .debug_ranges  0x00001738       0x30 ..\obj\misc.o
 .debug_ranges  0x00001768       0x50 ..\obj\glcd.o
 .debug_ranges  0x000017b8       0x88 ..\obj\tm_stm32f4_gpio.o
 .debug_ranges  0x00001840       0x30 ..\obj\polyphase.o
 .debug_ranges  0x00001870       0x28 ..\obj\tm_stm32f4_timer_properties.o
 .debug_ranges  0x00001898      0x2d8 ..\obj\stm32f4xx_tim.o
 .debug_ranges  0x00001b70       0x60 ..\obj\usb_hcd_int.o

.debug_line     0x00000000     0xd968
 .debug_line    0x00000000      0x328 ..\obj\tm_stm32f4_fatfs.o
 .debug_line    0x00000328       0x1d ..\obj\unicode.o
 .debug_line    0x00000345      0x253 ..\obj\stm32f4xx_syscfg.o
 .debug_line    0x00000598      0x50d ..\obj\usb_core.o
 .debug_line    0x00000aa5      0x1fc ..\obj\dqchan.o
 .debug_line    0x00000ca1      0x192 ..\obj\scalfact.o
 .debug_line    0x00000e33      0x11d ..\obj\pcm.o
 .debug_line    0x00000f50      0x249 ..\obj\i2c.o
 .debug_line    0x00001199      0x360 ..\obj\mp3.o
 .debug_line    0x000014f9      0x25a ..\obj\bitstream.o
 .debug_line    0x00001753      0x171 ..\obj\dequant.o
 .debug_line    0x000018c4      0x31f ..\obj\tm_stm32f4_exti.o
 .debug_line    0x00001be3       0x62 ..\obj\hufftabs.o
 .debug_line    0x00001c45      0x64f ..\obj\imdct.o
 .debug_line    0x00002294      0x280 ..\obj\timer.o
 .debug_line    0x00002514      0x20c ..\obj\usbh_hcs.o
 .debug_line    0x00002720      0x473 ..\obj\stm32f4xx_usart.o
 .debug_line    0x00002b93      0x34c ..\obj\usbh_stdreq.o
 .debug_line    0x00002edf       0x8b ..\obj\mp3tabs.o
 .debug_line    0x00002f6a       0xaa ..\obj\str.o
 .debug_line    0x00003014      0x120 ..\obj\subband.o
 .debug_line    0x00003134      0x426 ..\obj\diskio.o
 .debug_line    0x0000355a       0x90 ..\obj\startup_stm32f4xx.o
 .debug_line    0x000035ea      0x32c ..\obj\fatfs_usb.o
 .debug_line    0x00003916      0x273 ..\obj\mp3dec.o
 .debug_line    0x00003b89      0x266 ..\obj\main.o
 .debug_line    0x00003def      0x55b ..\obj\stm32f4xx_rcc.o
 .debug_line    0x0000434a      0x51f ..\obj\tm_stm32f4_usart.o
 .debug_line    0x00004869      0x244 ..\obj\tm_stm32f4_rotary_encoder.o
 .debug_line    0x00004aad      0x651 ..\obj\fatfs_sd.o
 .debug_line    0x000050fe      0x313 ..\obj\usbh_msc_core.o
 .debug_line    0x00005411      0x1d7 ..\obj\bt.o
 .debug_line    0x000055e8      0x25a ..\obj\gpio.o
 .debug_line    0x00005842      0x36c ..\obj\tm_stm32f4_delay.o
 .debug_line    0x00005bae      0x24d ..\obj\file.o
 .debug_line    0x00005dfb       0x1d ..\obj\syscall.o
 .debug_line    0x00005e18      0x463 ..\obj\tm_stm32f4_spi.o
 .debug_line    0x0000627b      0x4ca ..\obj\menu.o
 .debug_line    0x00006745      0x3f4 ..\obj\usbh_core.o
 .debug_line    0x00006b39      0x334 ..\obj\stm32f4xx_gpio.o
 .debug_line    0x00006e6d      0x152 ..\obj\id3.o
 .debug_line    0x00006fbf      0x339 ..\obj\usbh_msc_scsi.o
 .debug_line    0x000072f8      0x1c2 ..\obj\system_stm32f4xx.o
 .debug_line    0x000074ba      0x24c ..\obj\DMA.o
 .debug_line    0x00007706      0x1cf ..\obj\syscalls.o
 .debug_line    0x000078d5      0x3ae ..\obj\stm32f4xx_dma.o
 .debug_line    0x00007c83      0x2f4 ..\obj\usbh_usr.o
 .debug_line    0x00007f77      0x21a ..\obj\i2s.o
 .debug_line    0x00008191      0x2d2 ..\obj\usb_bsp.o
 .debug_line    0x00008463      0x25e ..\obj\tm_stm32f4_usb_msc_host.o
 .debug_line    0x000086c1      0x458 ..\obj\stproc.o
 .debug_line    0x00008b19      0x242 ..\obj\huffman.o
 .debug_line    0x00008d5b       0x5d ..\obj\trigtabs_fixpt.o
 .debug_line    0x00008db8      0x2f0 ..\obj\preamp.o
 .debug_line    0x000090a8       0xf6 ..\obj\buffers.o
 .debug_line    0x0000919e     0x1045 ..\obj\ff.o
 .debug_line    0x0000a1e3      0x259 ..\obj\usb_hcd.o
 .debug_line    0x0000a43c      0x2e7 ..\obj\usbh_msc_bot.o
 .debug_line    0x0000a723      0x419 ..\obj\stm32f4xx_spi.o
 .debug_line    0x0000ab3c      0x44f ..\obj\dct32.o
 .debug_line    0x0000af8b      0x4a2 ..\obj\stm32f4xx_i2c.o
 .debug_line    0x0000b42d      0x290 ..\obj\stm32f4xx_exti.o
 .debug_line    0x0000b6bd      0x2a2 ..\obj\usbh_ioreq.o
 .debug_line    0x0000b95f      0x23b ..\obj\misc.o
 .debug_line    0x0000bb9a      0x312 ..\obj\glcd.o
 .debug_line    0x0000beac      0x33d ..\obj\tm_stm32f4_gpio.o
 .debug_line    0x0000c1e9      0x6ee ..\obj\polyphase.o
 .debug_line    0x0000c8d7      0x2c1 ..\obj\tm_stm32f4_timer_properties.o
 .debug_line    0x0000cb98      0x9d3 ..\obj\stm32f4xx_tim.o
 .debug_line    0x0000d56b      0x3fd ..\obj\usb_hcd_int.o

.debug_str      0x00000000     0x98ff
 .debug_str     0x00000000      0x56a ..\obj\tm_stm32f4_fatfs.o
                                0x60f (size before relaxing)
 .debug_str     0x0000056a       0x38 ..\obj\unicode.o
                                0x115 (size before relaxing)
 .debug_str     0x000005a2      0x1a5 ..\obj\stm32f4xx_syscfg.o
                                0x304 (size before relaxing)
 .debug_str     0x00000747      0xeef ..\obj\usb_core.o
                               0x129d (size before relaxing)
 .debug_str     0x00001636      0x2e7 ..\obj\dqchan.o
                                0x456 (size before relaxing)
 .debug_str     0x0000191d      0x299 ..\obj\scalfact.o
                                0x5b1 (size before relaxing)
 .debug_str     0x00001bb6       0x27 ..\obj\pcm.o
                                0x192 (size before relaxing)
 .debug_str     0x00001bdd      0x1ce ..\obj\i2c.o
                                0x356 (size before relaxing)
 .debug_str     0x00001dab      0x441 ..\obj\mp3.o
                                0x7f5 (size before relaxing)
 .debug_str     0x000021ec      0x13c ..\obj\bitstream.o
                                0x5b3 (size before relaxing)
 .debug_str     0x00002328       0xc5 ..\obj\dequant.o
                                0x595 (size before relaxing)
 .debug_str     0x000023ed      0x973 ..\obj\tm_stm32f4_exti.o
                                0xb7b (size before relaxing)
 .debug_str     0x00002d60      0x12c ..\obj\hufftabs.o
                                0x254 (size before relaxing)
 .debug_str     0x00002e8c      0x204 ..\obj\imdct.o
                                0x637 (size before relaxing)
 .debug_str     0x00003090      0x2a2 ..\obj\timer.o
                                0xa11 (size before relaxing)
 .debug_str     0x00003332      0x138 ..\obj\usbh_hcs.o
                                0x80a (size before relaxing)
 .debug_str     0x0000346a      0x4a7 ..\obj\stm32f4xx_usart.o
                                0x6c8 (size before relaxing)
 .debug_str     0x00003911      0xa7b ..\obj\usbh_stdreq.o
                               0x12a8 (size before relaxing)
 .debug_str     0x0000438c       0x4a ..\obj\mp3tabs.o
                                0x1f5 (size before relaxing)
 .debug_str     0x000043d6       0x4f ..\obj\str.o
                                 0xe8 (size before relaxing)
 .debug_str     0x00004425       0xbe ..\obj\subband.o
                                0x384 (size before relaxing)
 .debug_str     0x000044e3      0x3dd ..\obj\diskio.o
                                0x5c7 (size before relaxing)
 .debug_str     0x000048c0       0xa9 ..\obj\startup_stm32f4xx.o
                                0x145 (size before relaxing)
 .debug_str     0x00004969      0x280 ..\obj\fatfs_usb.o
                               0x13e5 (size before relaxing)
 .debug_str     0x00004be9      0x144 ..\obj\mp3dec.o
                                0x64d (size before relaxing)
 .debug_str     0x00004d2d      0x123 ..\obj\main.o
                                0x3d7 (size before relaxing)
 .debug_str     0x00004e50      0x4ce ..\obj\stm32f4xx_rcc.o
                                0x849 (size before relaxing)
 .debug_str     0x0000531e      0x41e ..\obj\tm_stm32f4_usart.o
                                0xe8f (size before relaxing)
 .debug_str     0x0000573c      0x178 ..\obj\tm_stm32f4_rotary_encoder.o
                                0x472 (size before relaxing)
 .debug_str     0x000058b4      0x1f9 ..\obj\fatfs_sd.o
                                0x655 (size before relaxing)
 .debug_str     0x00005aad      0x3c0 ..\obj\usbh_msc_core.o
                               0x14fc (size before relaxing)
 .debug_str     0x00005e6d       0x71 ..\obj\bt.o
                                0x298 (size before relaxing)
 .debug_str     0x00005ede      0x1ba ..\obj\gpio.o
                                0x46a (size before relaxing)
 .debug_str     0x00006098      0x2a6 ..\obj\tm_stm32f4_delay.o
                                0xa31 (size before relaxing)
 .debug_str     0x0000633e       0x52 ..\obj\file.o
                                0x499 (size before relaxing)
 .debug_str     0x00006390       0x38 ..\obj\syscall.o
                                0x152 (size before relaxing)
 .debug_str     0x000063c8      0x28f ..\obj\tm_stm32f4_spi.o
                                0x758 (size before relaxing)
 .debug_str     0x00006657      0x256 ..\obj\menu.o
                                0x800 (size before relaxing)
 .debug_str     0x000068ad      0x1fc ..\obj\usbh_core.o
                               0x1390 (size before relaxing)
 .debug_str     0x00006aa9      0x124 ..\obj\stm32f4xx_gpio.o
                                0x4b3 (size before relaxing)
 .debug_str     0x00006bcd       0xf0 ..\obj\id3.o
                                0x417 (size before relaxing)
 .debug_str     0x00006cbd      0x199 ..\obj\usbh_msc_scsi.o
                                0xbb7 (size before relaxing)
 .debug_str     0x00006e56       0xa2 ..\obj\system_stm32f4xx.o
                                0x3a3 (size before relaxing)
 .debug_str     0x00006ef8       0xe6 ..\obj\DMA.o
                                0x8ca (size before relaxing)
 .debug_str     0x00006fde      0x155 ..\obj\syscalls.o
                                0x327 (size before relaxing)
 .debug_str     0x00007133      0x305 ..\obj\stm32f4xx_dma.o
                                0x53b (size before relaxing)
 .debug_str     0x00007438      0x242 ..\obj\usbh_usr.o
                                0x895 (size before relaxing)
 .debug_str     0x0000767a       0x52 ..\obj\i2s.o
                                0x4d8 (size before relaxing)
 .debug_str     0x000076cc       0x95 ..\obj\usb_bsp.o
                                0xfac (size before relaxing)
 .debug_str     0x00007761       0x86 ..\obj\tm_stm32f4_usb_msc_host.o
                               0x12be (size before relaxing)
 .debug_str     0x000077e7       0xa3 ..\obj\stproc.o
                                0x3a1 (size before relaxing)
 .debug_str     0x0000788a       0xba ..\obj\huffman.o
                                0x697 (size before relaxing)
 .debug_str     0x00007944       0x64 ..\obj\trigtabs_fixpt.o
                                0x1dd (size before relaxing)
 .debug_str     0x000079a8      0x11a ..\obj\preamp.o
                                0x478 (size before relaxing)
 .debug_str     0x00007ac2       0x6d ..\obj\buffers.o
                                0x5f5 (size before relaxing)
 .debug_str     0x00007b2f      0x32d ..\obj\ff.o
                                0x788 (size before relaxing)
 .debug_str     0x00007e5c       0x7b ..\obj\usb_hcd.o
                                0x94f (size before relaxing)
 .debug_str     0x00007ed7       0xfa ..\obj\usbh_msc_bot.o
                               0x146b (size before relaxing)
 .debug_str     0x00007fd1      0x2ae ..\obj\stm32f4xx_spi.o
                                0x6b1 (size before relaxing)
 .debug_str     0x0000827f       0x49 ..\obj\dct32.o
                                0x189 (size before relaxing)
 .debug_str     0x000082c8      0x2af ..\obj\stm32f4xx_i2c.o
                                0x687 (size before relaxing)
 .debug_str     0x00008577      0x158 ..\obj\stm32f4xx_exti.o
                                0x352 (size before relaxing)
 .debug_str     0x000086cf       0xab ..\obj\usbh_ioreq.o
                               0x117b (size before relaxing)
 .debug_str     0x0000877a       0xd2 ..\obj\misc.o
                                0x3c7 (size before relaxing)
 .debug_str     0x0000884c       0xb9 ..\obj\glcd.o
                                0x306 (size before relaxing)
 .debug_str     0x00008905      0x16c ..\obj\tm_stm32f4_gpio.o
                                0x59a (size before relaxing)
 .debug_str     0x00008a71       0x9e ..\obj\polyphase.o
                                0x1ed (size before relaxing)
 .debug_str     0x00008b0f      0x21e ..\obj\tm_stm32f4_timer_properties.o
                                0x511 (size before relaxing)
 .debug_str     0x00008d2d      0x970 ..\obj\stm32f4xx_tim.o
                                0xdf7 (size before relaxing)
 .debug_str     0x0000969d      0x262 ..\obj\usb_hcd_int.o
                                0xf59 (size before relaxing)

.comment        0x00000000       0x6e
 .comment       0x00000000       0x6e ..\obj\tm_stm32f4_fatfs.o
                                 0x6f (size before relaxing)
 .comment       0x0000006e       0x6f ..\obj\unicode.o
 .comment       0x0000006e       0x6f ..\obj\stm32f4xx_syscfg.o
 .comment       0x0000006e       0x6f ..\obj\usb_core.o
 .comment       0x0000006e       0x6f ..\obj\dqchan.o
 .comment       0x0000006e       0x6f ..\obj\scalfact.o
 .comment       0x0000006e       0x6f ..\obj\pcm.o
 .comment       0x0000006e       0x6f ..\obj\i2c.o
 .comment       0x0000006e       0x6f ..\obj\mp3.o
 .comment       0x0000006e       0x6f ..\obj\bitstream.o
 .comment       0x0000006e       0x6f ..\obj\dequant.o
 .comment       0x0000006e       0x6f ..\obj\tm_stm32f4_exti.o
 .comment       0x0000006e       0x6f ..\obj\hufftabs.o
 .comment       0x0000006e       0x6f ..\obj\imdct.o
 .comment       0x0000006e       0x6f ..\obj\timer.o
 .comment       0x0000006e       0x6f ..\obj\usbh_hcs.o
 .comment       0x0000006e       0x6f ..\obj\stm32f4xx_usart.o
 .comment       0x0000006e       0x6f ..\obj\usbh_stdreq.o
 .comment       0x0000006e       0x6f ..\obj\mp3tabs.o
 .comment       0x0000006e       0x6f ..\obj\str.o
 .comment       0x0000006e       0x6f ..\obj\subband.o
 .comment       0x0000006e       0x6f ..\obj\diskio.o
 .comment       0x0000006e       0x6f ..\obj\startup_stm32f4xx.o
 .comment       0x0000006e       0x6f ..\obj\fatfs_usb.o
 .comment       0x0000006e       0x6f ..\obj\mp3dec.o
 .comment       0x0000006e       0x6f ..\obj\main.o
 .comment       0x0000006e       0x6f ..\obj\stm32f4xx_rcc.o
 .comment       0x0000006e       0x6f ..\obj\tm_stm32f4_usart.o
 .comment       0x0000006e       0x6f ..\obj\tm_stm32f4_rotary_encoder.o
 .comment       0x0000006e       0x6f ..\obj\fatfs_sd.o
 .comment       0x0000006e       0x6f ..\obj\usbh_msc_core.o
 .comment       0x0000006e       0x6f ..\obj\bt.o
 .comment       0x0000006e       0x6f ..\obj\gpio.o
 .comment       0x0000006e       0x6f ..\obj\tm_stm32f4_delay.o
 .comment       0x0000006e       0x6f ..\obj\file.o
 .comment       0x0000006e       0x6f ..\obj\syscall.o
 .comment       0x0000006e       0x6f ..\obj\tm_stm32f4_spi.o
 .comment       0x0000006e       0x6f ..\obj\menu.o
 .comment       0x0000006e       0x6f ..\obj\usbh_core.o
 .comment       0x0000006e       0x6f ..\obj\stm32f4xx_gpio.o
 .comment       0x0000006e       0x6f ..\obj\id3.o
 .comment       0x0000006e       0x6f ..\obj\usbh_msc_scsi.o
 .comment       0x0000006e       0x6f ..\obj\system_stm32f4xx.o
 .comment       0x0000006e       0x6f ..\obj\DMA.o
 .comment       0x0000006e       0x6f ..\obj\syscalls.o
 .comment       0x0000006e       0x6f ..\obj\stm32f4xx_dma.o
 .comment       0x0000006e       0x6f ..\obj\usbh_usr.o
 .comment       0x0000006e       0x6f ..\obj\i2s.o
 .comment       0x0000006e       0x6f ..\obj\usb_bsp.o
 .comment       0x0000006e       0x6f ..\obj\tm_stm32f4_usb_msc_host.o
 .comment       0x0000006e       0x6f ..\obj\stproc.o
 .comment       0x0000006e       0x6f ..\obj\huffman.o
 .comment       0x0000006e       0x6f ..\obj\trigtabs_fixpt.o
 .comment       0x0000006e       0x6f ..\obj\preamp.o
 .comment       0x0000006e       0x6f ..\obj\buffers.o
 .comment       0x0000006e       0x6f ..\obj\ff.o
 .comment       0x0000006e       0x6f ..\obj\usb_hcd.o
 .comment       0x0000006e       0x6f ..\obj\usbh_msc_bot.o
 .comment       0x0000006e       0x6f ..\obj\stm32f4xx_spi.o
 .comment       0x0000006e       0x6f ..\obj\dct32.o
 .comment       0x0000006e       0x6f ..\obj\stm32f4xx_i2c.o
 .comment       0x0000006e       0x6f ..\obj\stm32f4xx_exti.o
 .comment       0x0000006e       0x6f ..\obj\usbh_ioreq.o
 .comment       0x0000006e       0x6f ..\obj\misc.o
 .comment       0x0000006e       0x6f ..\obj\glcd.o
 .comment       0x0000006e       0x6f ..\obj\tm_stm32f4_gpio.o
 .comment       0x0000006e       0x6f ..\obj\polyphase.o
 .comment       0x0000006e       0x6f ..\obj\tm_stm32f4_timer_properties.o
 .comment       0x0000006e       0x6f ..\obj\stm32f4xx_tim.o
 .comment       0x0000006e       0x6f ..\obj\usb_hcd_int.o

.ARM.attributes
                0x00000000       0x31
 .ARM.attributes
                0x00000000       0x33 ..\obj\tm_stm32f4_fatfs.o
 .ARM.attributes
                0x00000033       0x33 ..\obj\unicode.o
 .ARM.attributes
                0x00000066       0x33 ..\obj\stm32f4xx_syscfg.o
 .ARM.attributes
                0x00000099       0x33 ..\obj\usb_core.o
 .ARM.attributes
                0x000000cc       0x33 ..\obj\dqchan.o
 .ARM.attributes
                0x000000ff       0x33 ..\obj\scalfact.o
 .ARM.attributes
                0x00000132       0x33 ..\obj\pcm.o
 .ARM.attributes
                0x00000165       0x33 ..\obj\i2c.o
 .ARM.attributes
                0x00000198       0x33 ..\obj\mp3.o
 .ARM.attributes
                0x000001cb       0x33 ..\obj\bitstream.o
 .ARM.attributes
                0x000001fe       0x33 ..\obj\dequant.o
 .ARM.attributes
                0x00000231       0x33 ..\obj\tm_stm32f4_exti.o
 .ARM.attributes
                0x00000264       0x33 ..\obj\hufftabs.o
 .ARM.attributes
                0x00000297       0x33 ..\obj\imdct.o
 .ARM.attributes
                0x000002ca       0x33 ..\obj\timer.o
 .ARM.attributes
                0x000002fd       0x33 ..\obj\usbh_hcs.o
 .ARM.attributes
                0x00000330       0x33 ..\obj\stm32f4xx_usart.o
 .ARM.attributes
                0x00000363       0x33 ..\obj\usbh_stdreq.o
 .ARM.attributes
                0x00000396       0x33 ..\obj\mp3tabs.o
 .ARM.attributes
                0x000003c9       0x33 ..\obj\str.o
 .ARM.attributes
                0x000003fc       0x33 ..\obj\subband.o
 .ARM.attributes
                0x0000042f       0x33 ..\obj\diskio.o
 .ARM.attributes
                0x00000462       0x33 ..\obj\startup_stm32f4xx.o
 .ARM.attributes
                0x00000495       0x33 ..\obj\fatfs_usb.o
 .ARM.attributes
                0x000004c8       0x33 ..\obj\mp3dec.o
 .ARM.attributes
                0x000004fb       0x33 ..\obj\main.o
 .ARM.attributes
                0x0000052e       0x33 ..\obj\stm32f4xx_rcc.o
 .ARM.attributes
                0x00000561       0x33 ..\obj\tm_stm32f4_usart.o
 .ARM.attributes
                0x00000594       0x33 ..\obj\tm_stm32f4_rotary_encoder.o
 .ARM.attributes
                0x000005c7       0x33 ..\obj\fatfs_sd.o
 .ARM.attributes
                0x000005fa       0x33 ..\obj\usbh_msc_core.o
 .ARM.attributes
                0x0000062d       0x33 ..\obj\bt.o
 .ARM.attributes
                0x00000660       0x33 ..\obj\gpio.o
 .ARM.attributes
                0x00000693       0x33 ..\obj\tm_stm32f4_delay.o
 .ARM.attributes
                0x000006c6       0x33 ..\obj\file.o
 .ARM.attributes
                0x000006f9       0x33 ..\obj\syscall.o
 .ARM.attributes
                0x0000072c       0x33 ..\obj\tm_stm32f4_spi.o
 .ARM.attributes
                0x0000075f       0x33 ..\obj\menu.o
 .ARM.attributes
                0x00000792       0x33 ..\obj\usbh_core.o
 .ARM.attributes
                0x000007c5       0x33 ..\obj\stm32f4xx_gpio.o
 .ARM.attributes
                0x000007f8       0x33 ..\obj\id3.o
 .ARM.attributes
                0x0000082b       0x33 ..\obj\usbh_msc_scsi.o
 .ARM.attributes
                0x0000085e       0x33 ..\obj\system_stm32f4xx.o
 .ARM.attributes
                0x00000891       0x33 ..\obj\DMA.o
 .ARM.attributes
                0x000008c4       0x33 ..\obj\syscalls.o
 .ARM.attributes
                0x000008f7       0x33 ..\obj\stm32f4xx_dma.o
 .ARM.attributes
                0x0000092a       0x33 ..\obj\usbh_usr.o
 .ARM.attributes
                0x0000095d       0x33 ..\obj\i2s.o
 .ARM.attributes
                0x00000990       0x33 ..\obj\usb_bsp.o
 .ARM.attributes
                0x000009c3       0x33 ..\obj\tm_stm32f4_usb_msc_host.o
 .ARM.attributes
                0x000009f6       0x33 ..\obj\stproc.o
 .ARM.attributes
                0x00000a29       0x33 ..\obj\huffman.o
 .ARM.attributes
                0x00000a5c       0x33 ..\obj\trigtabs_fixpt.o
 .ARM.attributes
                0x00000a8f       0x33 ..\obj\preamp.o
 .ARM.attributes
                0x00000ac2       0x33 ..\obj\buffers.o
 .ARM.attributes
                0x00000af5       0x33 ..\obj\ff.o
 .ARM.attributes
                0x00000b28       0x33 ..\obj\usb_hcd.o
 .ARM.attributes
                0x00000b5b       0x33 ..\obj\usbh_msc_bot.o
 .ARM.attributes
                0x00000b8e       0x33 ..\obj\stm32f4xx_spi.o
 .ARM.attributes
                0x00000bc1       0x33 ..\obj\dct32.o
 .ARM.attributes
                0x00000bf4       0x33 ..\obj\stm32f4xx_i2c.o
 .ARM.attributes
                0x00000c27       0x33 ..\obj\stm32f4xx_exti.o
 .ARM.attributes
                0x00000c5a       0x33 ..\obj\usbh_ioreq.o
 .ARM.attributes
                0x00000c8d       0x33 ..\obj\misc.o
 .ARM.attributes
                0x00000cc0       0x33 ..\obj\glcd.o
 .ARM.attributes
                0x00000cf3       0x33 ..\obj\tm_stm32f4_gpio.o
 .ARM.attributes
                0x00000d26       0x33 ..\obj\polyphase.o
 .ARM.attributes
                0x00000d59       0x33 ..\obj\tm_stm32f4_timer_properties.o
 .ARM.attributes
                0x00000d8c       0x33 ..\obj\stm32f4xx_tim.o
 .ARM.attributes
                0x00000dbf       0x33 ..\obj\usb_hcd_int.o
 .ARM.attributes
                0x00000df2       0x1e c:/program files (x86)/gnu tools arm embedded/5.4 2016q3/bin/../lib/gcc/arm-none-eabi/5.4.1/armv7e-m\libgcc.a(_arm_addsubdf3.o)
 .ARM.attributes
                0x00000e10       0x1e c:/program files (x86)/gnu tools arm embedded/5.4 2016q3/bin/../lib/gcc/arm-none-eabi/5.4.1/armv7e-m\libgcc.a(_arm_muldivdf3.o)
 .ARM.attributes
                0x00000e2e       0x1e c:/program files (x86)/gnu tools arm embedded/5.4 2016q3/bin/../lib/gcc/arm-none-eabi/5.4.1/armv7e-m\libgcc.a(_arm_cmpdf2.o)
 .ARM.attributes
                0x00000e4c       0x1e c:/program files (x86)/gnu tools arm embedded/5.4 2016q3/bin/../lib/gcc/arm-none-eabi/5.4.1/armv7e-m\libgcc.a(_arm_fixunsdfsi.o)
 .ARM.attributes
                0x00000e6a       0x2e c:/program files (x86)/gnu tools arm embedded/5.4 2016q3/bin/../lib/gcc/arm-none-eabi/5.4.1/../../../../arm-none-eabi/lib/armv7e-m\libg.a(lib_a-malloc.o)
 .ARM.attributes
                0x00000e98       0x2e c:/program files (x86)/gnu tools arm embedded/5.4 2016q3/bin/../lib/gcc/arm-none-eabi/5.4.1/../../../../arm-none-eabi/lib/armv7e-m\libg.a(lib_a-mallocr.o)
 .ARM.attributes
                0x00000ec6       0x1c c:/program files (x86)/gnu tools arm embedded/5.4 2016q3/bin/../lib/gcc/arm-none-eabi/5.4.1/../../../../arm-none-eabi/lib/armv7e-m\libg.a(lib_a-memcpy.o)
 .ARM.attributes
                0x00000ee2       0x2e c:/program files (x86)/gnu tools arm embedded/5.4 2016q3/bin/../lib/gcc/arm-none-eabi/5.4.1/../../../../arm-none-eabi/lib/armv7e-m\libg.a(lib_a-memmove.o)
 .ARM.attributes
                0x00000f10       0x2e c:/program files (x86)/gnu tools arm embedded/5.4 2016q3/bin/../lib/gcc/arm-none-eabi/5.4.1/../../../../arm-none-eabi/lib/armv7e-m\libg.a(lib_a-mlock.o)
 .ARM.attributes
                0x00000f3e       0x2e c:/program files (x86)/gnu tools arm embedded/5.4 2016q3/bin/../lib/gcc/arm-none-eabi/5.4.1/../../../../arm-none-eabi/lib/armv7e-m\libg.a(lib_a-realloc.o)
 .ARM.attributes
                0x00000f6c       0x2e c:/program files (x86)/gnu tools arm embedded/5.4 2016q3/bin/../lib/gcc/arm-none-eabi/5.4.1/../../../../arm-none-eabi/lib/armv7e-m\libg.a(lib_a-reallocr.o)
 .ARM.attributes
                0x00000f9a       0x2e c:/program files (x86)/gnu tools arm embedded/5.4 2016q3/bin/../lib/gcc/arm-none-eabi/5.4.1/../../../../arm-none-eabi/lib/armv7e-m\libg.a(lib_a-sbrkr.o)
 .ARM.attributes
                0x00000fc8       0x2e c:/program files (x86)/gnu tools arm embedded/5.4 2016q3/bin/../lib/gcc/arm-none-eabi/5.4.1/../../../../arm-none-eabi/lib/armv7e-m\libg.a(lib_a-sprintf.o)
 .ARM.attributes
                0x00000ff6       0x2e c:/program files (x86)/gnu tools arm embedded/5.4 2016q3/bin/../lib/gcc/arm-none-eabi/5.4.1/../../../../arm-none-eabi/lib/armv7e-m\libg.a(lib_a-strcpy.o)
 .ARM.attributes
                0x00001024       0x1c c:/program files (x86)/gnu tools arm embedded/5.4 2016q3/bin/../lib/gcc/arm-none-eabi/5.4.1/../../../../arm-none-eabi/lib/armv7e-m\libg.a(lib_a-strlen.o)
 .ARM.attributes
                0x00001040       0x2e c:/program files (x86)/gnu tools arm embedded/5.4 2016q3/bin/../lib/gcc/arm-none-eabi/5.4.1/../../../../arm-none-eabi/lib/armv7e-m\libg.a(lib_a-svfprintf.o)
 .ARM.attributes
                0x0000106e       0x2e c:/program files (x86)/gnu tools arm embedded/5.4 2016q3/bin/../lib/gcc/arm-none-eabi/5.4.1/../../../../arm-none-eabi/lib/armv7e-m\libg.a(lib_a-dtoa.o)
 .ARM.attributes
                0x0000109c       0x2e c:/program files (x86)/gnu tools arm embedded/5.4 2016q3/bin/../lib/gcc/arm-none-eabi/5.4.1/../../../../arm-none-eabi/lib/armv7e-m\libg.a(lib_a-freer.o)
 .ARM.attributes
                0x000010ca       0x2e c:/program files (x86)/gnu tools arm embedded/5.4 2016q3/bin/../lib/gcc/arm-none-eabi/5.4.1/../../../../arm-none-eabi/lib/armv7e-m\libg.a(lib_a-impure.o)
 .ARM.attributes
                0x000010f8       0x2e c:/program files (x86)/gnu tools arm embedded/5.4 2016q3/bin/../lib/gcc/arm-none-eabi/5.4.1/../../../../arm-none-eabi/lib/armv7e-m\libg.a(lib_a-localeconv.o)
 .ARM.attributes
                0x00001126       0x1c c:/program files (x86)/gnu tools arm embedded/5.4 2016q3/bin/../lib/gcc/arm-none-eabi/5.4.1/../../../../arm-none-eabi/lib/armv7e-m\libg.a(lib_a-memchr.o)
 .ARM.attributes
                0x00001142       0x2e c:/program files (x86)/gnu tools arm embedded/5.4 2016q3/bin/../lib/gcc/arm-none-eabi/5.4.1/../../../../arm-none-eabi/lib/armv7e-m\libg.a(lib_a-mprec.o)
 .ARM.attributes
                0x00001170       0x2e c:/program files (x86)/gnu tools arm embedded/5.4 2016q3/bin/../lib/gcc/arm-none-eabi/5.4.1/../../../../arm-none-eabi/lib/armv7e-m\libg.a(lib_a-reent.o)
 .ARM.attributes
                0x0000119e       0x2e c:/program files (x86)/gnu tools arm embedded/5.4 2016q3/bin/../lib/gcc/arm-none-eabi/5.4.1/../../../../arm-none-eabi/lib/armv7e-m\libg.a(lib_a-svfiprintf.o)
 .ARM.attributes
                0x000011cc       0x2e c:/program files (x86)/gnu tools arm embedded/5.4 2016q3/bin/../lib/gcc/arm-none-eabi/5.4.1/../../../../arm-none-eabi/lib/armv7e-m\libg.a(lib_a-callocr.o)
 .ARM.attributes
                0x000011fa       0x2e c:/program files (x86)/gnu tools arm embedded/5.4 2016q3/bin/../lib/gcc/arm-none-eabi/5.4.1/../../../../arm-none-eabi/lib/armv7e-m\libg.a(lib_a-locale.o)
 .ARM.attributes
                0x00001228       0x2e c:/program files (x86)/gnu tools arm embedded/5.4 2016q3/bin/../lib/gcc/arm-none-eabi/5.4.1/../../../../arm-none-eabi/lib/armv7e-m\libg.a(lib_a-mbtowc_r.o)
 .ARM.attributes
                0x00001256       0x2e c:/program files (x86)/gnu tools arm embedded/5.4 2016q3/bin/../lib/gcc/arm-none-eabi/5.4.1/../../../../arm-none-eabi/lib/armv7e-m\libg.a(lib_a-memset.o)
 .ARM.attributes
                0x00001284       0x1c c:/program files (x86)/gnu tools arm embedded/5.4 2016q3/bin/../lib/gcc/arm-none-eabi/5.4.1/../../../../arm-none-eabi/lib/armv7e-m\libg.a(lib_a-strcmp.o)
 .ARM.attributes
                0x000012a0       0x2e c:/program files (x86)/gnu tools arm embedded/5.4 2016q3/bin/../lib/gcc/arm-none-eabi/5.4.1/../../../../arm-none-eabi/lib/armv7e-m\libg.a(lib_a-wctomb_r.o)
 .ARM.attributes
                0x000012ce       0x2e c:/program files (x86)/gnu tools arm embedded/5.4 2016q3/bin/../lib/gcc/arm-none-eabi/5.4.1/../../../../arm-none-eabi/lib/armv7e-m\libg.a(lib_a-ctype_.o)
 .ARM.attributes
                0x000012fc       0x1e c:/program files (x86)/gnu tools arm embedded/5.4 2016q3/bin/../lib/gcc/arm-none-eabi/5.4.1/armv7e-m\libgcc.a(_arm_unorddf2.o)
 .ARM.attributes
                0x0000131a       0x1e c:/program files (x86)/gnu tools arm embedded/5.4 2016q3/bin/../lib/gcc/arm-none-eabi/5.4.1/armv7e-m\libgcc.a(_arm_fixdfsi.o)
 .ARM.attributes
                0x00001338       0x1e c:/program files (x86)/gnu tools arm embedded/5.4 2016q3/bin/../lib/gcc/arm-none-eabi/5.4.1/armv7e-m\libgcc.a(_aeabi_uldivmod.o)
 .ARM.attributes
                0x00001356       0x2e c:/program files (x86)/gnu tools arm embedded/5.4 2016q3/bin/../lib/gcc/arm-none-eabi/5.4.1/armv7e-m\libgcc.a(_udivmoddi4.o)
 .ARM.attributes
                0x00001384       0x1e c:/program files (x86)/gnu tools arm embedded/5.4 2016q3/bin/../lib/gcc/arm-none-eabi/5.4.1/armv7e-m\libgcc.a(_dvmd_tls.o)

.debug_frame    0x00000000     0x5008
 .debug_frame   0x00000000      0x130 ..\obj\tm_stm32f4_fatfs.o
 .debug_frame   0x00000130       0x84 ..\obj\stm32f4xx_syscfg.o
 .debug_frame   0x000001b4      0x2a4 ..\obj\usb_core.o
 .debug_frame   0x00000458       0x6c ..\obj\dqchan.o
 .debug_frame   0x000004c4       0x40 ..\obj\scalfact.o
 .debug_frame   0x00000504       0x84 ..\obj\i2c.o
 .debug_frame   0x00000588       0xf8 ..\obj\mp3.o
 .debug_frame   0x00000680       0xe8 ..\obj\bitstream.o
 .debug_frame   0x00000768       0x60 ..\obj\dequant.o
 .debug_frame   0x000007c8      0x100 ..\obj\tm_stm32f4_exti.o
 .debug_frame   0x000008c8       0x88 ..\obj\imdct.o
 .debug_frame   0x00000950       0xd4 ..\obj\timer.o
 .debug_frame   0x00000a24       0x84 ..\obj\usbh_hcs.o
 .debug_frame   0x00000aa8      0x21c ..\obj\stm32f4xx_usart.o
 .debug_frame   0x00000cc4      0x118 ..\obj\usbh_stdreq.o
 .debug_frame   0x00000ddc       0x5c ..\obj\str.o
 .debug_frame   0x00000e38       0x60 ..\obj\subband.o
 .debug_frame   0x00000e98      0x278 ..\obj\diskio.o
 .debug_frame   0x00001110       0x38 ..\obj\startup_stm32f4xx.o
 .debug_frame   0x00001148       0xd0 ..\obj\fatfs_usb.o
 .debug_frame   0x00001218      0x100 ..\obj\mp3dec.o
 .debug_frame   0x00001318       0x28 ..\obj\main.o
 .debug_frame   0x00001340      0x2f8 ..\obj\stm32f4xx_rcc.o
 .debug_frame   0x00001638      0x2ec ..\obj\tm_stm32f4_usart.o
 .debug_frame   0x00001924       0x70 ..\obj\tm_stm32f4_rotary_encoder.o
 .debug_frame   0x00001994      0x19c ..\obj\fatfs_sd.o
 .debug_frame   0x00001b30       0x8c ..\obj\usbh_msc_core.o
 .debug_frame   0x00001bbc       0x2c ..\obj\bt.o
 .debug_frame   0x00001be8       0x7c ..\obj\gpio.o
 .debug_frame   0x00001c64       0xf4 ..\obj\tm_stm32f4_delay.o
 .debug_frame   0x00001d58       0x50 ..\obj\file.o
 .debug_frame   0x00001da8      0x1a8 ..\obj\tm_stm32f4_spi.o
 .debug_frame   0x00001f50      0x1ac ..\obj\menu.o
 .debug_frame   0x000020fc       0xd4 ..\obj\usbh_core.o
 .debug_frame   0x000021d0      0x11c ..\obj\stm32f4xx_gpio.o
 .debug_frame   0x000022ec       0x64 ..\obj\id3.o
 .debug_frame   0x00002350       0xb4 ..\obj\usbh_msc_scsi.o
 .debug_frame   0x00002404       0x38 ..\obj\system_stm32f4xx.o
 .debug_frame   0x0000243c       0x5c ..\obj\DMA.o
 .debug_frame   0x00002498       0xa0 ..\obj\syscalls.o
 .debug_frame   0x00002538      0x17c ..\obj\stm32f4xx_dma.o
 .debug_frame   0x000026b4      0x130 ..\obj\usbh_usr.o
 .debug_frame   0x000027e4       0x4c ..\obj\i2s.o
 .debug_frame   0x00002830       0xdc ..\obj\usb_bsp.o
 .debug_frame   0x0000290c       0x6c ..\obj\tm_stm32f4_usb_msc_host.o
 .debug_frame   0x00002978       0x90 ..\obj\stproc.o
 .debug_frame   0x00002a08       0x40 ..\obj\huffman.o
 .debug_frame   0x00002a48       0xe4 ..\obj\preamp.o
 .debug_frame   0x00002b2c       0x54 ..\obj\buffers.o
 .debug_frame   0x00002b80      0x788 ..\obj\ff.o
 .debug_frame   0x00003308       0xd4 ..\obj\usb_hcd.o
 .debug_frame   0x000033dc       0x74 ..\obj\usbh_msc_bot.o
 .debug_frame   0x00003450      0x1e4 ..\obj\stm32f4xx_spi.o
 .debug_frame   0x00003634       0x40 ..\obj\dct32.o
 .debug_frame   0x00003674      0x24c ..\obj\stm32f4xx_i2c.o
 .debug_frame   0x000038c0       0xa4 ..\obj\stm32f4xx_exti.o
 .debug_frame   0x00003964      0x120 ..\obj\usbh_ioreq.o
 .debug_frame   0x00003a84       0x74 ..\obj\misc.o
 .debug_frame   0x00003af8      0x118 ..\obj\glcd.o
 .debug_frame   0x00003c10      0x1c8 ..\obj\tm_stm32f4_gpio.o
 .debug_frame   0x00003dd8       0x68 ..\obj\polyphase.o
 .debug_frame   0x00003e40       0x84 ..\obj\tm_stm32f4_timer_properties.o
 .debug_frame   0x00003ec4      0x680 ..\obj\stm32f4xx_tim.o
 .debug_frame   0x00004544      0x1a8 ..\obj\usb_hcd_int.o
 .debug_frame   0x000046ec       0x30 c:/program files (x86)/gnu tools arm embedded/5.4 2016q3/bin/../lib/gcc/arm-none-eabi/5.4.1/../../../../arm-none-eabi/lib/armv7e-m\libg.a(lib_a-malloc.o)
 .debug_frame   0x0000471c       0x58 c:/program files (x86)/gnu tools arm embedded/5.4 2016q3/bin/../lib/gcc/arm-none-eabi/5.4.1/../../../../arm-none-eabi/lib/armv7e-m\libg.a(lib_a-mallocr.o)
 .debug_frame   0x00004774       0x30 c:/program files (x86)/gnu tools arm embedded/5.4 2016q3/bin/../lib/gcc/arm-none-eabi/5.4.1/../../../../arm-none-eabi/lib/armv7e-m\libg.a(lib_a-memmove.o)
 .debug_frame   0x000047a4       0x30 c:/program files (x86)/gnu tools arm embedded/5.4 2016q3/bin/../lib/gcc/arm-none-eabi/5.4.1/../../../../arm-none-eabi/lib/armv7e-m\libg.a(lib_a-mlock.o)
 .debug_frame   0x000047d4       0x20 c:/program files (x86)/gnu tools arm embedded/5.4 2016q3/bin/../lib/gcc/arm-none-eabi/5.4.1/../../../../arm-none-eabi/lib/armv7e-m\libg.a(lib_a-realloc.o)
 .debug_frame   0x000047f4       0x60 c:/program files (x86)/gnu tools arm embedded/5.4 2016q3/bin/../lib/gcc/arm-none-eabi/5.4.1/../../../../arm-none-eabi/lib/armv7e-m\libg.a(lib_a-reallocr.o)
 .debug_frame   0x00004854       0x2c c:/program files (x86)/gnu tools arm embedded/5.4 2016q3/bin/../lib/gcc/arm-none-eabi/5.4.1/../../../../arm-none-eabi/lib/armv7e-m\libg.a(lib_a-sbrkr.o)
 .debug_frame   0x00004880       0x84 c:/program files (x86)/gnu tools arm embedded/5.4 2016q3/bin/../lib/gcc/arm-none-eabi/5.4.1/../../../../arm-none-eabi/lib/armv7e-m\libg.a(lib_a-sprintf.o)
 .debug_frame   0x00004904       0x20 c:/program files (x86)/gnu tools arm embedded/5.4 2016q3/bin/../lib/gcc/arm-none-eabi/5.4.1/../../../../arm-none-eabi/lib/armv7e-m\libg.a(lib_a-strcpy.o)
 .debug_frame   0x00004924       0x44 c:/program files (x86)/gnu tools arm embedded/5.4 2016q3/bin/../lib/gcc/arm-none-eabi/5.4.1/../../../../arm-none-eabi/lib/armv7e-m\libg.a(lib_a-svfprintf.o)
 .debug_frame   0x00004968       0x88 c:/program files (x86)/gnu tools arm embedded/5.4 2016q3/bin/../lib/gcc/arm-none-eabi/5.4.1/../../../../arm-none-eabi/lib/armv7e-m\libg.a(lib_a-dtoa.o)
 .debug_frame   0x000049f0       0x74 c:/program files (x86)/gnu tools arm embedded/5.4 2016q3/bin/../lib/gcc/arm-none-eabi/5.4.1/../../../../arm-none-eabi/lib/armv7e-m\libg.a(lib_a-freer.o)
 .debug_frame   0x00004a64       0x40 c:/program files (x86)/gnu tools arm embedded/5.4 2016q3/bin/../lib/gcc/arm-none-eabi/5.4.1/../../../../arm-none-eabi/lib/armv7e-m\libg.a(lib_a-localeconv.o)
 .debug_frame   0x00004aa4      0x264 c:/program files (x86)/gnu tools arm embedded/5.4 2016q3/bin/../lib/gcc/arm-none-eabi/5.4.1/../../../../arm-none-eabi/lib/armv7e-m\libg.a(lib_a-mprec.o)
 .debug_frame   0x00004d08       0x58 c:/program files (x86)/gnu tools arm embedded/5.4 2016q3/bin/../lib/gcc/arm-none-eabi/5.4.1/../../../../arm-none-eabi/lib/armv7e-m\libg.a(lib_a-reent.o)
 .debug_frame   0x00004d60       0x78 c:/program files (x86)/gnu tools arm embedded/5.4 2016q3/bin/../lib/gcc/arm-none-eabi/5.4.1/../../../../arm-none-eabi/lib/armv7e-m\libg.a(lib_a-svfiprintf.o)
 .debug_frame   0x00004dd8       0x28 c:/program files (x86)/gnu tools arm embedded/5.4 2016q3/bin/../lib/gcc/arm-none-eabi/5.4.1/../../../../arm-none-eabi/lib/armv7e-m\libg.a(lib_a-callocr.o)
 .debug_frame   0x00004e00       0x84 c:/program files (x86)/gnu tools arm embedded/5.4 2016q3/bin/../lib/gcc/arm-none-eabi/5.4.1/../../../../arm-none-eabi/lib/armv7e-m\libg.a(lib_a-locale.o)
 .debug_frame   0x00004e84       0x4c c:/program files (x86)/gnu tools arm embedded/5.4 2016q3/bin/../lib/gcc/arm-none-eabi/5.4.1/../../../../arm-none-eabi/lib/armv7e-m\libg.a(lib_a-mbtowc_r.o)
 .debug_frame   0x00004ed0       0x34 c:/program files (x86)/gnu tools arm embedded/5.4 2016q3/bin/../lib/gcc/arm-none-eabi/5.4.1/../../../../arm-none-eabi/lib/armv7e-m\libg.a(lib_a-memset.o)
 .debug_frame   0x00004f04       0x68 c:/program files (x86)/gnu tools arm embedded/5.4 2016q3/bin/../lib/gcc/arm-none-eabi/5.4.1/../../../../arm-none-eabi/lib/armv7e-m\libg.a(lib_a-strcmp.o)
 .debug_frame   0x00004f6c       0x3c c:/program files (x86)/gnu tools arm embedded/5.4 2016q3/bin/../lib/gcc/arm-none-eabi/5.4.1/../../../../arm-none-eabi/lib/armv7e-m\libg.a(lib_a-wctomb_r.o)
 .debug_frame   0x00004fa8       0x2c c:/program files (x86)/gnu tools arm embedded/5.4 2016q3/bin/../lib/gcc/arm-none-eabi/5.4.1/armv7e-m\libgcc.a(_aeabi_uldivmod.o)
 .debug_frame   0x00004fd4       0x34 c:/program files (x86)/gnu tools arm embedded/5.4 2016q3/bin/../lib/gcc/arm-none-eabi/5.4.1/armv7e-m\libgcc.a(_udivmoddi4.o)
